<abi-corpus version='2.0' path='/home/davide/ws_plotjuggler/plotjuggler_core/build/debug_asan/pj_plugins/libmock_data_source_plugin.so' architecture='elf-amd-x86_64' soname='libmock_data_source_plugin.so'>
  <elf-needed>
    <dependency name='libasan.so.6'/>
    <dependency name='libstdc++.so.6'/>
    <dependency name='libm.so.6'/>
    <dependency name='libgcc_s.so.1'/>
    <dependency name='libc.so.6'/>
  </elf-needed>
  <elf-function-symbols>
    <elf-symbol name='PJ_get_data_source_vtable' type='func-type' binding='global-binding' visibility='default-visibility' is-defined='yes'/>
    <elf-symbol name='_ZN2PJ10UnexpectedINSt7__cxx1112basic_stringIcSt11char_traitsIcESaIcEEEEC1ES6_' type='func-type' binding='weak-binding' visibility='default-visibility' is-defined='yes'/>
    <elf-symbol name='_ZN2PJ10UnexpectedINSt7__cxx1112basic_stringIcSt11char_traitsIcESaIcEEEEC2ES6_' type='func-type' binding='weak-binding' visibility='default-visibility' alias='_ZN2PJ10UnexpectedINSt7__cxx1112basic_stringIcSt11char_traitsIcESaIcEEEEC1ES6_' is-defined='yes'/>
    <elf-symbol name='_ZN2PJ10UnexpectedINSt7__cxx1112basic_stringIcSt11char_traitsIcESaIcEEEED1Ev' type='func-type' binding='weak-binding' visibility='default-visibility' alias='_ZN2PJ10UnexpectedINSt7__cxx1112basic_stringIcSt11char_traitsIcESaIcEEEED2Ev' is-defined='yes'/>
    <elf-symbol name='_ZN2PJ10UnexpectedINSt7__cxx1112basic_stringIcSt11char_traitsIcESaIcEEEED2Ev' type='func-type' binding='weak-binding' visibility='default-visibility' is-defined='yes'/>
    <elf-symbol name='_ZN2PJ10unexpectedB5cxx11EPKc' type='func-type' binding='weak-binding' visibility='default-visibility' is-defined='yes'/>
    <elf-symbol name='_ZN2PJ10unexpectedINSt7__cxx1112basic_stringIcSt11char_traitsIcESaIcEEEEENS_10UnexpectedINSt5decayIT_E4typeEEEOS9_' type='func-type' binding='weak-binding' visibility='default-visibility' is-defined='yes'/>
    <elf-symbol name='_ZN2PJ10unexpectedIRNSt7__cxx1112basic_stringIcSt11char_traitsIcESaIcEEEEENS_10UnexpectedINSt5decayIT_E4typeEEEOSA_' type='func-type' binding='weak-binding' visibility='default-visibility' is-defined='yes'/>
    <elf-symbol name='_ZN2PJ13errorToStringB5cxx11ERK10PJ_error_t' type='func-type' binding='weak-binding' visibility='default-visibility' is-defined='yes'/>
    <elf-symbol name='_ZN2PJ20DataSourcePluginBase10loadConfigB5cxx11ESt17basic_string_viewIcSt11char_traitsIcEE' type='func-type' binding='weak-binding' visibility='default-visibility' is-defined='yes'/>
    <elf-symbol name='_ZN2PJ20DataSourcePluginBase10storeErrorEP10PJ_error_tiSt17basic_string_viewIcSt11char_traitsIcEES6_' type='func-type' binding='weak-binding' visibility='default-visibility' is-defined='yes'/>
    <elf-symbol name='_ZN2PJ20DataSourcePluginBase15pluginExtensionESt17basic_string_viewIcSt11char_traitsIcEE' type='func-type' binding='weak-binding' visibility='default-visibility' is-defined='yes'/>
    <elf-symbol name='_ZN2PJ20DataSourcePluginBase15trampoline_bindEPv21PJ_service_registry_tP10PJ_error_t' type='func-type' binding='weak-binding' visibility='default-visibility' is-defined='yes'/>
    <elf-symbol name='_ZN2PJ20DataSourcePluginBase15trampoline_pollEPvP10PJ_error_t' type='func-type' binding='weak-binding' visibility='default-visibility' is-defined='yes'/>
    <elf-symbol name='_ZN2PJ20DataSourcePluginBase15trampoline_stopEPv' type='func-type' binding='weak-binding' visibility='default-visibility' is-defined='yes'/>
    <elf-symbol name='_ZN2PJ20DataSourcePluginBase16trampoline_pauseEPvP10PJ_error_t' type='func-type' binding='weak-binding' visibility='default-visibility' is-defined='yes'/>
    <elf-symbol name='_ZN2PJ20DataSourcePluginBase16trampoline_startEPvP10PJ_error_t' type='func-type' binding='weak-binding' visibility='default-visibility' is-defined='yes'/>
    <elf-symbol name='_ZN2PJ20DataSourcePluginBase17trampoline_resumeEPvP10PJ_error_t' type='func-type' binding='weak-binding' visibility='default-visibility' is-defined='yes'/>
    <elf-symbol name='_ZN2PJ20DataSourcePluginBase18trampoline_destroyEPv' type='func-type' binding='weak-binding' visibility='default-visibility' is-defined='yes'/>
    <elf-symbol name='_ZN2PJ20DataSourcePluginBase21trampoline_get_dialogEPv' type='func-type' binding='weak-binding' visibility='default-visibility' is-defined='yes'/>
    <elf-symbol name='_ZN2PJ20DataSourcePluginBase22trampoline_load_configEPv16PJ_string_view_tP10PJ_error_t' type='func-type' binding='weak-binding' visibility='default-visibility' is-defined='yes'/>
    <elf-symbol name='_ZN2PJ20DataSourcePluginBase22trampoline_save_configEPvP16PJ_string_view_tP10PJ_error_t' type='func-type' binding='weak-binding' visibility='default-visibility' is-defined='yes'/>
    <elf-symbol name='_ZN2PJ20DataSourcePluginBase23trampoline_capabilitiesEPv' type='func-type' binding='weak-binding' visibility='default-visibility' is-defined='yes'/>
    <elf-symbol name='_ZN2PJ20DataSourcePluginBase24trampoline_current_stateEPv' type='func-type' binding='weak-binding' visibility='default-visibility' is-defined='yes'/>
    <elf-symbol name='_ZN2PJ20DataSourcePluginBase31trampoline_get_plugin_extensionEPv16PJ_string_view_t' type='func-type' binding='weak-binding' visibility='default-visibility' is-defined='yes'/>
    <elf-symbol name='_ZN2PJ20DataSourcePluginBase4bindB5cxx11ENS_3sdk15ServiceRegistryE' type='func-type' binding='weak-binding' visibility='default-visibility' is-defined='yes'/>
    <elf-symbol name='_ZN2PJ20DataSourcePluginBase4pollB5cxx11Ev' type='func-type' binding='weak-binding' visibility='default-visibility' is-defined='yes'/>
    <elf-symbol name='_ZN2PJ20DataSourcePluginBase5pauseB5cxx11Ev' type='func-type' binding='weak-binding' visibility='default-visibility' is-defined='yes'/>
    <elf-symbol name='_ZN2PJ20DataSourcePluginBase6resumeB5cxx11Ev' type='func-type' binding='weak-binding' visibility='default-visibility' is-defined='yes'/>
    <elf-symbol name='_ZN2PJ20DataSourcePluginBase9getDialogEv' type='func-type' binding='weak-binding' visibility='default-visibility' is-defined='yes'/>
    <elf-symbol name='_ZN2PJ20DataSourcePluginBaseC1Ev' type='func-type' binding='weak-binding' visibility='default-visibility' alias='_ZN2PJ20DataSourcePluginBaseC2Ev' is-defined='yes'/>
    <elf-symbol name='_ZN2PJ20DataSourcePluginBaseC2Ev' type='func-type' binding='weak-binding' visibility='default-visibility' is-defined='yes'/>
    <elf-symbol name='_ZN2PJ20DataSourcePluginBaseD0Ev' type='func-type' binding='weak-binding' visibility='default-visibility' is-defined='yes'/>
    <elf-symbol name='_ZN2PJ20DataSourcePluginBaseD1Ev' type='func-type' binding='weak-binding' visibility='default-visibility' is-defined='yes'/>
    <elf-symbol name='_ZN2PJ20DataSourcePluginBaseD2Ev' type='func-type' binding='weak-binding' visibility='default-visibility' alias='_ZN2PJ20DataSourcePluginBaseD1Ev' is-defined='yes'/>
    <elf-symbol name='_ZN2PJ25DataSourceRuntimeHostViewC1E29PJ_data_source_runtime_host_t' type='func-type' binding='weak-binding' visibility='default-visibility' is-defined='yes'/>
    <elf-symbol name='_ZN2PJ25DataSourceRuntimeHostViewC1Ev' type='func-type' binding='weak-binding' visibility='default-visibility' is-defined='yes'/>
    <elf-symbol name='_ZN2PJ25DataSourceRuntimeHostViewC2E29PJ_data_source_runtime_host_t' type='func-type' binding='weak-binding' visibility='default-visibility' alias='_ZN2PJ25DataSourceRuntimeHostViewC1E29PJ_data_source_runtime_host_t' is-defined='yes'/>
    <elf-symbol name='_ZN2PJ25DataSourceRuntimeHostViewC2Ev' type='func-type' binding='weak-binding' visibility='default-visibility' alias='_ZN2PJ25DataSourceRuntimeHostViewC1Ev' is-defined='yes'/>
    <elf-symbol name='_ZN2PJ3sdk10toAbiBytesESt4spanIKhLm18446744073709551615EE' type='func-type' binding='weak-binding' visibility='default-visibility' is-defined='yes'/>
    <elf-symbol name='_ZN2PJ3sdk10toAbiNamedESt4spanIKNS0_15NamedFieldValueELm18446744073709551615EE' type='func-type' binding='weak-binding' visibility='default-visibility' is-defined='yes'/>
    <elf-symbol name='_ZN2PJ3sdk11toAbiScalarERKSt7variantIJNS_9NullValueENS0_9TypedNullEfdasilhtjmbSt17basic_string_viewIcSt11char_traitsIcEEEE' type='func-type' binding='weak-binding' visibility='default-visibility' is-defined='yes'/>
    <elf-symbol name='_ZN2PJ3sdk11toAbiStringESt17basic_string_viewIcSt11char_traitsIcEE' type='func-type' binding='weak-binding' visibility='default-visibility' is-defined='yes'/>
    <elf-symbol name='_ZN2PJ3sdk13errorToStringB5cxx11ERK10PJ_error_t' type='func-type' binding='weak-binding' visibility='default-visibility' is-defined='yes'/>
    <elf-symbol name='_ZN2PJ3sdk13setErrorFieldEPcmSt17basic_string_viewIcSt11char_traitsIcEE' type='func-type' binding='weak-binding' visibility='default-visibility' is-defined='yes'/>
    <elf-symbol name='_ZN2PJ3sdk15NamedFieldValueD1Ev' type='func-type' binding='weak-binding' visibility='default-visibility' alias='_ZN2PJ3sdk15NamedFieldValueD2Ev' is-defined='yes'/>
    <elf-symbol name='_ZN2PJ3sdk15NamedFieldValueD2Ev' type='func-type' binding='weak-binding' visibility='default-visibility' is-defined='yes'/>
    <elf-symbol name='_ZN2PJ3sdk15ServiceRegistry10writeFieldEPcmPKc' type='func-type' binding='weak-binding' visibility='default-visibility' is-defined='yes'/>
    <elf-symbol name='_ZN2PJ3sdk15ServiceRegistry15validateServiceERK12PJ_service_t' type='func-type' binding='weak-binding' visibility='default-visibility' is-defined='yes'/>
    <elf-symbol name='_ZN2PJ3sdk15ServiceRegistry8makeViewINS0_22SourceWriteHostServiceEEENT_4ViewE12PJ_service_t' type='func-type' binding='weak-binding' visibility='default-visibility' is-defined='yes'/>
    <elf-symbol name='_ZN2PJ3sdk15ServiceRegistry8makeViewINS0_28DataSourceRuntimeHostServiceEEENT_4ViewE12PJ_service_t' type='func-type' binding='weak-binding' visibility='default-visibility' is-defined='yes'/>
    <elf-symbol name='_ZN2PJ3sdk15ServiceRegistryC1E21PJ_service_registry_t' type='func-type' binding='weak-binding' visibility='default-visibility' is-defined='yes'/>
    <elf-symbol name='_ZN2PJ3sdk15ServiceRegistryC1Ev' type='func-type' binding='weak-binding' visibility='default-visibility' is-defined='yes'/>
    <elf-symbol name='_ZN2PJ3sdk15ServiceRegistryC2E21PJ_service_registry_t' type='func-type' binding='weak-binding' visibility='default-visibility' alias='_ZN2PJ3sdk15ServiceRegistryC1E21PJ_service_registry_t' is-defined='yes'/>
    <elf-symbol name='_ZN2PJ3sdk15ServiceRegistryC2Ev' type='func-type' binding='weak-binding' visibility='default-visibility' alias='_ZN2PJ3sdk15ServiceRegistryC1Ev' is-defined='yes'/>
    <elf-symbol name='_ZN2PJ3sdk19SourceWriteHostViewC1E22PJ_source_write_host_t' type='func-type' binding='weak-binding' visibility='default-visibility' is-defined='yes'/>
    <elf-symbol name='_ZN2PJ3sdk19SourceWriteHostViewC2E22PJ_source_write_host_t' type='func-type' binding='weak-binding' visibility='default-visibility' alias='_ZN2PJ3sdk19SourceWriteHostViewC1E22PJ_source_write_host_t' is-defined='yes'/>
    <elf-symbol name='_ZN2PJ3sdk6isNullERKSt7variantIJNS_9NullValueENS0_9TypedNullEfdasilhtjmbSt17basic_string_viewIcSt11char_traitsIcEEEE' type='func-type' binding='weak-binding' visibility='default-visibility' is-defined='yes'/>
    <elf-symbol name='_ZN2PJ3sdk6typeOfERKSt7variantIJNS_9NullValueENS0_9TypedNullEfdasilhtjmbSt17basic_string_viewIcSt11char_traitsIcEEEE' type='func-type' binding='weak-binding' visibility='default-visibility' is-defined='yes'/>
    <elf-symbol name='_ZN2PJ3sdk9fillErrorEP10PJ_error_tiSt17basic_string_viewIcSt11char_traitsIcEES6_' type='func-type' binding='weak-binding' visibility='default-visibility' is-defined='yes'/>
    <elf-symbol name='_ZN2PJ3sdk9toAbiTypeENS_13PrimitiveTypeE' type='func-type' binding='weak-binding' visibility='default-visibility' is-defined='yes'/>
    <elf-symbol name='_ZN2PJ8ExpectedI17PJ_topic_handle_tNSt7__cxx1112basic_stringIcSt11char_traitsIcESaIcEEEEC1EONS_10UnexpectedIS7_EE' type='func-type' binding='weak-binding' visibility='default-visibility' is-defined='yes'/>
    <elf-symbol name='_ZN2PJ8ExpectedI17PJ_topic_handle_tNSt7__cxx1112basic_stringIcSt11char_traitsIcESaIcEEEEC1EOS1_' type='func-type' binding='weak-binding' visibility='default-visibility' is-defined='yes'/>
    <elf-symbol name='_ZN2PJ8ExpectedI17PJ_topic_handle_tNSt7__cxx1112basic_stringIcSt11char_traitsIcESaIcEEEEC2EONS_10UnexpectedIS7_EE' type='func-type' binding='weak-binding' visibility='default-visibility' alias='_ZN2PJ8ExpectedI17PJ_topic_handle_tNSt7__cxx1112basic_stringIcSt11char_traitsIcESaIcEEEEC1EONS_10UnexpectedIS7_EE' is-defined='yes'/>
    <elf-symbol name='_ZN2PJ8ExpectedI17PJ_topic_handle_tNSt7__cxx1112basic_stringIcSt11char_traitsIcESaIcEEEEC2EOS1_' type='func-type' binding='weak-binding' visibility='default-visibility' alias='_ZN2PJ8ExpectedI17PJ_topic_handle_tNSt7__cxx1112basic_stringIcSt11char_traitsIcESaIcEEEEC1EOS1_' is-defined='yes'/>
    <elf-symbol name='_ZN2PJ8ExpectedI17PJ_topic_handle_tNSt7__cxx1112basic_stringIcSt11char_traitsIcESaIcEEEED1Ev' type='func-type' binding='weak-binding' visibility='default-visibility' alias='_ZN2PJ8ExpectedI17PJ_topic_handle_tNSt7__cxx1112basic_stringIcSt11char_traitsIcESaIcEEEED2Ev' is-defined='yes'/>
    <elf-symbol name='_ZN2PJ8ExpectedI17PJ_topic_handle_tNSt7__cxx1112basic_stringIcSt11char_traitsIcESaIcEEEED2Ev' type='func-type' binding='weak-binding' visibility='default-visibility' is-defined='yes'/>
    <elf-symbol name='_ZN2PJ8ExpectedI26PJ_parser_binding_handle_tNSt7__cxx1112basic_stringIcSt11char_traitsIcESaIcEEEEC1EONS_10UnexpectedIS7_EE' type='func-type' binding='weak-binding' visibility='default-visibility' is-defined='yes'/>
    <elf-symbol name='_ZN2PJ8ExpectedI26PJ_parser_binding_handle_tNSt7__cxx1112basic_stringIcSt11char_traitsIcESaIcEEEEC1EOS1_' type='func-type' binding='weak-binding' visibility='default-visibility' is-defined='yes'/>
    <elf-symbol name='_ZN2PJ8ExpectedI26PJ_parser_binding_handle_tNSt7__cxx1112basic_stringIcSt11char_traitsIcESaIcEEEEC2EONS_10UnexpectedIS7_EE' type='func-type' binding='weak-binding' visibility='default-visibility' alias='_ZN2PJ8ExpectedI26PJ_parser_binding_handle_tNSt7__cxx1112basic_stringIcSt11char_traitsIcESaIcEEEEC1EONS_10UnexpectedIS7_EE' is-defined='yes'/>
    <elf-symbol name='_ZN2PJ8ExpectedI26PJ_parser_binding_handle_tNSt7__cxx1112basic_stringIcSt11char_traitsIcESaIcEEEEC2EOS1_' type='func-type' binding='weak-binding' visibility='default-visibility' alias='_ZN2PJ8ExpectedI26PJ_parser_binding_handle_tNSt7__cxx1112basic_stringIcSt11char_traitsIcESaIcEEEEC1EOS1_' is-defined='yes'/>
    <elf-symbol name='_ZN2PJ8ExpectedI26PJ_parser_binding_handle_tNSt7__cxx1112basic_stringIcSt11char_traitsIcESaIcEEEED1Ev' type='func-type' binding='weak-binding' visibility='default-visibility' is-defined='yes'/>
    <elf-symbol name='_ZN2PJ8ExpectedI26PJ_parser_binding_handle_tNSt7__cxx1112basic_stringIcSt11char_traitsIcESaIcEEEED2Ev' type='func-type' binding='weak-binding' visibility='default-visibility' alias='_ZN2PJ8ExpectedI26PJ_parser_binding_handle_tNSt7__cxx1112basic_stringIcSt11char_traitsIcESaIcEEEED1Ev' is-defined='yes'/>
    <elf-symbol name='_ZN2PJ8ExpectedINS_25DataSourceRuntimeHostViewENSt7__cxx1112basic_stringIcSt11char_traitsIcESaIcEEEEC1EONS_10UnexpectedIS7_EE' type='func-type' binding='weak-binding' visibility='default-visibility' is-defined='yes'/>
    <elf-symbol name='_ZN2PJ8ExpectedINS_25DataSourceRuntimeHostViewENSt7__cxx1112basic_stringIcSt11char_traitsIcESaIcEEEEC1EOS1_' type='func-type' binding='weak-binding' visibility='default-visibility' is-defined='yes'/>
    <elf-symbol name='_ZN2PJ8ExpectedINS_25DataSourceRuntimeHostViewENSt7__cxx1112basic_stringIcSt11char_traitsIcESaIcEEEEC2EONS_10UnexpectedIS7_EE' type='func-type' binding='weak-binding' visibility='default-visibility' alias='_ZN2PJ8ExpectedINS_25DataSourceRuntimeHostViewENSt7__cxx1112basic_stringIcSt11char_traitsIcESaIcEEEEC1EONS_10UnexpectedIS7_EE' is-defined='yes'/>
    <elf-symbol name='_ZN2PJ8ExpectedINS_25DataSourceRuntimeHostViewENSt7__cxx1112basic_stringIcSt11char_traitsIcESaIcEEEEC2EOS1_' type='func-type' binding='weak-binding' visibility='default-visibility' alias='_ZN2PJ8ExpectedINS_25DataSourceRuntimeHostViewENSt7__cxx1112basic_stringIcSt11char_traitsIcESaIcEEEEC1EOS1_' is-defined='yes'/>
    <elf-symbol name='_ZN2PJ8ExpectedINS_25DataSourceRuntimeHostViewENSt7__cxx1112basic_stringIcSt11char_traitsIcESaIcEEEED1Ev' type='func-type' binding='weak-binding' visibility='default-visibility' alias='_ZN2PJ8ExpectedINS_25DataSourceRuntimeHostViewENSt7__cxx1112basic_stringIcSt11char_traitsIcESaIcEEEED2Ev' is-defined='yes'/>
    <elf-symbol name='_ZN2PJ8ExpectedINS_25DataSourceRuntimeHostViewENSt7__cxx1112basic_stringIcSt11char_traitsIcESaIcEEEED2Ev' type='func-type' binding='weak-binding' visibility='default-visibility' is-defined='yes'/>
    <elf-symbol name='_ZN2PJ8ExpectedINS_3sdk19SourceWriteHostViewENSt7__cxx1112basic_stringIcSt11char_traitsIcESaIcEEEEC1EONS_10UnexpectedIS8_EE' type='func-type' binding='weak-binding' visibility='default-visibility' is-defined='yes'/>
    <elf-symbol name='_ZN2PJ8ExpectedINS_3sdk19SourceWriteHostViewENSt7__cxx1112basic_stringIcSt11char_traitsIcESaIcEEEEC1EOS2_' type='func-type' binding='weak-binding' visibility='default-visibility' is-defined='yes'/>
    <elf-symbol name='_ZN2PJ8ExpectedINS_3sdk19SourceWriteHostViewENSt7__cxx1112basic_stringIcSt11char_traitsIcESaIcEEEEC2EONS_10UnexpectedIS8_EE' type='func-type' binding='weak-binding' visibility='default-visibility' alias='_ZN2PJ8ExpectedINS_3sdk19SourceWriteHostViewENSt7__cxx1112basic_stringIcSt11char_traitsIcESaIcEEEEC1EONS_10UnexpectedIS8_EE' is-defined='yes'/>
    <elf-symbol name='_ZN2PJ8ExpectedINS_3sdk19SourceWriteHostViewENSt7__cxx1112basic_stringIcSt11char_traitsIcESaIcEEEEC2EOS2_' type='func-type' binding='weak-binding' visibility='default-visibility' alias='_ZN2PJ8ExpectedINS_3sdk19SourceWriteHostViewENSt7__cxx1112basic_stringIcSt11char_traitsIcESaIcEEEEC1EOS2_' is-defined='yes'/>
    <elf-symbol name='_ZN2PJ8ExpectedINS_3sdk19SourceWriteHostViewENSt7__cxx1112basic_stringIcSt11char_traitsIcESaIcEEEED1Ev' type='func-type' binding='weak-binding' visibility='default-visibility' alias='_ZN2PJ8ExpectedINS_3sdk19SourceWriteHostViewENSt7__cxx1112basic_stringIcSt11char_traitsIcESaIcEEEED2Ev' is-defined='yes'/>
    <elf-symbol name='_ZN2PJ8ExpectedINS_3sdk19SourceWriteHostViewENSt7__cxx1112basic_stringIcSt11char_traitsIcESaIcEEEED2Ev' type='func-type' binding='weak-binding' visibility='default-visibility' is-defined='yes'/>
    <elf-symbol name='_ZN2PJ8ExpectedIvNSt7__cxx1112basic_stringIcSt11char_traitsIcESaIcEEEEC1EONS_10UnexpectedIS6_EE' type='func-type' binding='weak-binding' visibility='default-visibility' is-defined='yes'/>
    <elf-symbol name='_ZN2PJ8ExpectedIvNSt7__cxx1112basic_stringIcSt11char_traitsIcESaIcEEEEC1Ev' type='func-type' binding='weak-binding' visibility='default-visibility' is-defined='yes'/>
    <elf-symbol name='_ZN2PJ8ExpectedIvNSt7__cxx1112basic_stringIcSt11char_traitsIcESaIcEEEEC2EONS_10UnexpectedIS6_EE' type='func-type' binding='weak-binding' visibility='default-visibility' alias='_ZN2PJ8ExpectedIvNSt7__cxx1112basic_stringIcSt11char_traitsIcESaIcEEEEC1EONS_10UnexpectedIS6_EE' is-defined='yes'/>
    <elf-symbol name='_ZN2PJ8ExpectedIvNSt7__cxx1112basic_stringIcSt11char_traitsIcESaIcEEEEC2Ev' type='func-type' binding='weak-binding' visibility='default-visibility' alias='_ZN2PJ8ExpectedIvNSt7__cxx1112basic_stringIcSt11char_traitsIcESaIcEEEEC1Ev' is-defined='yes'/>
    <elf-symbol name='_ZN2PJ8ExpectedIvNSt7__cxx1112basic_stringIcSt11char_traitsIcESaIcEEEED1Ev' type='func-type' binding='weak-binding' visibility='default-visibility' alias='_ZN2PJ8ExpectedIvNSt7__cxx1112basic_stringIcSt11char_traitsIcESaIcEEEED2Ev' is-defined='yes'/>
    <elf-symbol name='_ZN2PJ8ExpectedIvNSt7__cxx1112basic_stringIcSt11char_traitsIcESaIcEEEED2Ev' type='func-type' binding='weak-binding' visibility='default-visibility' is-defined='yes'/>
    <elf-symbol name='_ZN2PJ8okStatusB5cxx11Ev' type='func-type' binding='weak-binding' visibility='default-visibility' is-defined='yes'/>
    <elf-symbol name='_ZN9__gnu_cxx11char_traitsIcE2eqERKcS3_' type='func-type' binding='weak-binding' visibility='default-visibility' is-defined='yes'/>
    <elf-symbol name='_ZN9__gnu_cxx11char_traitsIcE4copyEPcPKcm' type='func-type' binding='weak-binding' visibility='default-visibility' is-defined='yes'/>
    <elf-symbol name='_ZN9__gnu_cxx11char_traitsIcE4findEPKcmRS2_' type='func-type' binding='weak-binding' visibility='default-visibility' is-defined='yes'/>
    <elf-symbol name='_ZN9__gnu_cxx11char_traitsIcE4moveEPcPKcm' type='func-type' binding='weak-binding' visibility='default-visibility' is-defined='yes'/>
    <elf-symbol name='_ZN9__gnu_cxx11char_traitsIcE6lengthEPKc' type='func-type' binding='weak-binding' visibility='default-visibility' is-defined='yes'/>
    <elf-symbol name='_ZN9__gnu_cxx13new_allocatorI22PJ_named_field_value_tE10deallocateEPS1_m' type='func-type' binding='weak-binding' visibility='default-visibility' is-defined='yes'/>
    <elf-symbol name='_ZN9__gnu_cxx13new_allocatorI22PJ_named_field_value_tE8allocateEmPKv' type='func-type' binding='weak-binding' visibility='default-visibility' is-defined='yes'/>
    <elf-symbol name='_ZN9__gnu_cxx13new_allocatorI22PJ_named_field_value_tEC1Ev' type='func-type' binding='weak-binding' visibility='default-visibility' is-defined='yes'/>
    <elf-symbol name='_ZN9__gnu_cxx13new_allocatorI22PJ_named_field_value_tEC2Ev' type='func-type' binding='weak-binding' visibility='default-visibility' alias='_ZN9__gnu_cxx13new_allocatorI22PJ_named_field_value_tEC1Ev' is-defined='yes'/>
    <elf-symbol name='_ZN9__gnu_cxx13new_allocatorIcE10deallocateEPcm' type='func-type' binding='weak-binding' visibility='default-visibility' is-defined='yes'/>
    <elf-symbol name='_ZN9__gnu_cxx13new_allocatorIcE8allocateEmPKv' type='func-type' binding='weak-binding' visibility='default-visibility' is-defined='yes'/>
    <elf-symbol name='_ZN9__gnu_cxx14__alloc_traitsISaIcEcE15_S_always_equalEv' type='func-type' binding='weak-binding' visibility='default-visibility' is-defined='yes'/>
    <elf-symbol name='_ZN9__gnu_cxx14__alloc_traitsISaIcEcE17_S_select_on_copyERKS1_' type='func-type' binding='weak-binding' visibility='default-visibility' is-defined='yes'/>
    <elf-symbol name='_ZN9__gnu_cxx14__alloc_traitsISaIcEcE27_S_propagate_on_copy_assignEv' type='func-type' binding='weak-binding' visibility='default-visibility' is-defined='yes'/>
    <elf-symbol name='_ZN9__gnu_cxx14__alloc_traitsISaIcEcE27_S_propagate_on_move_assignEv' type='func-type' binding='weak-binding' visibility='default-visibility' is-defined='yes'/>
    <elf-symbol name='_ZN9__gnu_cxx16__aligned_membufINSt7__cxx1112basic_stringIcSt11char_traitsIcESaIcEEEE6_M_ptrEv' type='func-type' binding='weak-binding' visibility='default-visibility' is-defined='yes'/>
    <elf-symbol name='_ZN9__gnu_cxx16__aligned_membufINSt7__cxx1112basic_stringIcSt11char_traitsIcESaIcEEEE7_M_addrEv' type='func-type' binding='weak-binding' visibility='default-visibility' is-defined='yes'/>
    <elf-symbol name='_ZN9__gnu_cxx17__is_null_pointerIKcEEbPT_' type='func-type' binding='weak-binding' visibility='default-visibility' is-defined='yes'/>
    <elf-symbol name='_ZN9__gnu_cxx17__is_null_pointerIcEEbPT_' type='func-type' binding='weak-binding' visibility='default-visibility' is-defined='yes'/>
    <elf-symbol name='_ZN9__gnu_cxx17__normal_iteratorIP22PJ_named_field_value_tSt6vectorIS1_SaIS1_EEEC1ERKS2_' type='func-type' binding='weak-binding' visibility='default-visibility' is-defined='yes'/>
    <elf-symbol name='_ZN9__gnu_cxx17__normal_iteratorIP22PJ_named_field_value_tSt6vectorIS1_SaIS1_EEEC2ERKS2_' type='func-type' binding='weak-binding' visibility='default-visibility' alias='_ZN9__gnu_cxx17__normal_iteratorIP22PJ_named_field_value_tSt6vectorIS1_SaIS1_EEEC1ERKS2_' is-defined='yes'/>
    <elf-symbol name='_ZN9__gnu_cxx17__normal_iteratorIPKN2PJ3sdk15NamedFieldValueESt4spanIS4_Lm18446744073709551615EEEC1ERKS5_' type='func-type' binding='weak-binding' visibility='default-visibility' is-defined='yes'/>
    <elf-symbol name='_ZN9__gnu_cxx17__normal_iteratorIPKN2PJ3sdk15NamedFieldValueESt4spanIS4_Lm18446744073709551615EEEC2ERKS5_' type='func-type' binding='weak-binding' visibility='default-visibility' alias='_ZN9__gnu_cxx17__normal_iteratorIPKN2PJ3sdk15NamedFieldValueESt4spanIS4_Lm18446744073709551615EEEC1ERKS5_' is-defined='yes'/>
    <elf-symbol name='_ZN9__gnu_cxx17__normal_iteratorIPKN2PJ3sdk15NamedFieldValueESt4spanIS4_Lm18446744073709551615EEEppEv' type='func-type' binding='weak-binding' visibility='default-visibility' is-defined='yes'/>
    <elf-symbol name='_ZN9__gnu_cxxeqIPKN2PJ3sdk15NamedFieldValueESt4spanIS4_Lm18446744073709551615EEEEbRKNS_17__normal_iteratorIT_T0_EESD_' type='func-type' binding='weak-binding' visibility='default-visibility' is-defined='yes'/>
    <elf-symbol name='_ZN9__gnu_cxxmiIP22PJ_named_field_value_tSt6vectorIS1_SaIS1_EEEENS_17__normal_iteratorIT_T0_E15difference_typeERKS9_SC_' type='func-type' binding='weak-binding' visibility='default-visibility' is-defined='yes'/>
    <elf-symbol name='_ZNK2PJ20DataSourcePluginBase10saveConfigB5cxx11Ev' type='func-type' binding='weak-binding' visibility='default-visibility' is-defined='yes'/>
    <elf-symbol name='_ZNK2PJ20DataSourcePluginBase11runtimeHostEv' type='func-type' binding='weak-binding' visibility='default-visibility' is-defined='yes'/>
    <elf-symbol name='_ZNK2PJ20DataSourcePluginBase14writeHostBoundEv' type='func-type' binding='weak-binding' visibility='default-visibility' is-defined='yes'/>
    <elf-symbol name='_ZNK2PJ20DataSourcePluginBase16runtimeHostBoundEv' type='func-type' binding='weak-binding' visibility='default-visibility' is-defined='yes'/>
    <elf-symbol name='_ZNK2PJ20DataSourcePluginBase9writeHostEv' type='func-type' binding='weak-binding' visibility='default-visibility' is-defined='yes'/>
    <elf-symbol name='_ZNK2PJ25DataSourceRuntimeHostView11notifyStateENS_15DataSourceStateE' type='func-type' binding='weak-binding' visibility='default-visibility' is-defined='yes'/>
    <elf-symbol name='_ZNK2PJ25DataSourceRuntimeHostView13progressStartB5cxx11ESt17basic_string_viewIcSt11char_traitsIcEEmb' type='func-type' binding='weak-binding' visibility='default-visibility' is-defined='yes'/>
    <elf-symbol name='_ZNK2PJ25DataSourceRuntimeHostView13reportMessageENS_22DataSourceMessageLevelESt17basic_string_viewIcSt11char_traitsIcEE' type='func-type' binding='weak-binding' visibility='default-visibility' is-defined='yes'/>
    <elf-symbol name='_ZNK2PJ25DataSourceRuntimeHostView14progressFinishEv' type='func-type' binding='weak-binding' visibility='default-visibility' is-defined='yes'/>
    <elf-symbol name='_ZNK2PJ25DataSourceRuntimeHostView14progressUpdateEm' type='func-type' binding='weak-binding' visibility='default-visibility' is-defined='yes'/>
    <elf-symbol name='_ZNK2PJ25DataSourceRuntimeHostView14pushRawMessageB5cxx11E26PJ_parser_binding_handle_tlSt4spanIKhLm18446744073709551615EE' type='func-type' binding='weak-binding' visibility='default-visibility' is-defined='yes'/>
    <elf-symbol name='_ZNK2PJ25DataSourceRuntimeHostView19ensureParserBindingB5cxx11ERKNS_20ParserBindingRequestE' type='func-type' binding='weak-binding' visibility='default-visibility' is-defined='yes'/>
    <elf-symbol name='_ZNK2PJ25DataSourceRuntimeHostView5validEv' type='func-type' binding='weak-binding' visibility='default-visibility' is-defined='yes'/>
    <elf-symbol name='_ZNK2PJ3sdk15ServiceRegistry5validEv' type='func-type' binding='weak-binding' visibility='default-visibility' is-defined='yes'/>
    <elf-symbol name='_ZNK2PJ3sdk15ServiceRegistry6lookupEPKcjR12PJ_service_tP10PJ_error_t' type='func-type' binding='weak-binding' visibility='default-visibility' is-defined='yes'/>
    <elf-symbol name='_ZNK2PJ3sdk15ServiceRegistry7requireINS0_22SourceWriteHostServiceEEENS_8ExpectedINT_4ViewENSt7__cxx1112basic_stringIcSt11char_traitsIcESaIcEEEEEv' type='func-type' binding='weak-binding' visibility='default-visibility' is-defined='yes'/>
    <elf-symbol name='_ZNK2PJ3sdk15ServiceRegistry7requireINS0_28DataSourceRuntimeHostServiceEEENS_8ExpectedINT_4ViewENSt7__cxx1112basic_stringIcSt11char_traitsIcESaIcEEEEEv' type='func-type' binding='weak-binding' visibility='default-visibility' is-defined='yes'/>
    <elf-symbol name='_ZNK2PJ3sdk19SourceWriteHostView11ensureTopicB5cxx11ESt17basic_string_viewIcSt11char_traitsIcEE' type='func-type' binding='weak-binding' visibility='default-visibility' is-defined='yes'/>
    <elf-symbol name='_ZNK2PJ3sdk19SourceWriteHostView12appendRecordB5cxx11E17PJ_topic_handle_tlSt16initializer_listINS0_15NamedFieldValueEE' type='func-type' binding='weak-binding' visibility='default-visibility' is-defined='yes'/>
    <elf-symbol name='_ZNK2PJ3sdk19SourceWriteHostView12appendRecordB5cxx11E17PJ_topic_handle_tlSt4spanIKNS0_15NamedFieldValueELm18446744073709551615EE' type='func-type' binding='weak-binding' visibility='default-visibility' is-defined='yes'/>
    <elf-symbol name='_ZNK2PJ3sdk19SourceWriteHostView5validEv' type='func-type' binding='weak-binding' visibility='default-visibility' is-defined='yes'/>
    <elf-symbol name='_ZNK2PJ8ExpectedI17PJ_topic_handle_tNSt7__cxx1112basic_stringIcSt11char_traitsIcESaIcEEEE9has_valueEv' type='func-type' binding='weak-binding' visibility='default-visibility' is-defined='yes'/>
    <elf-symbol name='_ZNK2PJ8ExpectedI17PJ_topic_handle_tNSt7__cxx1112basic_stringIcSt11char_traitsIcESaIcEEEEcvbEv' type='func-type' binding='weak-binding' visibility='default-visibility' is-defined='yes'/>
    <elf-symbol name='_ZNK2PJ8ExpectedI26PJ_parser_binding_handle_tNSt7__cxx1112basic_stringIcSt11char_traitsIcESaIcEEEE9has_valueEv' type='func-type' binding='weak-binding' visibility='default-visibility' is-defined='yes'/>
    <elf-symbol name='_ZNK2PJ8ExpectedI26PJ_parser_binding_handle_tNSt7__cxx1112basic_stringIcSt11char_traitsIcESaIcEEEEcvbEv' type='func-type' binding='weak-binding' visibility='default-visibility' is-defined='yes'/>
    <elf-symbol name='_ZNK2PJ8ExpectedINS_25DataSourceRuntimeHostViewENSt7__cxx1112basic_stringIcSt11char_traitsIcESaIcEEEE9has_valueEv' type='func-type' binding='weak-binding' visibility='default-visibility' is-defined='yes'/>
    <elf-symbol name='_ZNK2PJ8ExpectedINS_25DataSourceRuntimeHostViewENSt7__cxx1112basic_stringIcSt11char_traitsIcESaIcEEEEcvbEv' type='func-type' binding='weak-binding' visibility='default-visibility' is-defined='yes'/>
    <elf-symbol name='_ZNK2PJ8ExpectedINS_3sdk19SourceWriteHostViewENSt7__cxx1112basic_stringIcSt11char_traitsIcESaIcEEEE9has_valueEv' type='func-type' binding='weak-binding' visibility='default-visibility' is-defined='yes'/>
    <elf-symbol name='_ZNK2PJ8ExpectedINS_3sdk19SourceWriteHostViewENSt7__cxx1112basic_stringIcSt11char_traitsIcESaIcEEEEcvbEv' type='func-type' binding='weak-binding' visibility='default-visibility' is-defined='yes'/>
    <elf-symbol name='_ZNK2PJ8ExpectedIvNSt7__cxx1112basic_stringIcSt11char_traitsIcESaIcEEEE9has_valueEv' type='func-type' binding='weak-binding' visibility='default-visibility' is-defined='yes'/>
    <elf-symbol name='_ZNK2PJ8ExpectedIvNSt7__cxx1112basic_stringIcSt11char_traitsIcESaIcEEEEcvbEv' type='func-type' binding='weak-binding' visibility='default-visibility' is-defined='yes'/>
    <elf-symbol name='_ZNK9__gnu_cxx13new_allocatorI22PJ_named_field_value_tE11_M_max_sizeEv' type='func-type' binding='weak-binding' visibility='default-visibility' is-defined='yes'/>
    <elf-symbol name='_ZNK9__gnu_cxx13new_allocatorIcE11_M_max_sizeEv' type='func-type' binding='weak-binding' visibility='default-visibility' is-defined='yes'/>
    <elf-symbol name='_ZNK9__gnu_cxx17__normal_iteratorIP22PJ_named_field_value_tSt6vectorIS1_SaIS1_EEE4baseEv' type='func-type' binding='weak-binding' visibility='default-visibility' is-defined='yes'/>
    <elf-symbol name='_ZNK9__gnu_cxx17__normal_iteratorIP22PJ_named_field_value_tSt6vectorIS1_SaIS1_EEEdeEv' type='func-type' binding='weak-binding' visibility='default-visibility' is-defined='yes'/>
    <elf-symbol name='_ZNK9__gnu_cxx17__normal_iteratorIP22PJ_named_field_value_tSt6vectorIS1_SaIS1_EEEmiEl' type='func-type' binding='weak-binding' visibility='default-visibility' is-defined='yes'/>
    <elf-symbol name='_ZNK9__gnu_cxx17__normal_iteratorIPKN2PJ3sdk15NamedFieldValueESt4spanIS4_Lm18446744073709551615EEE4baseEv' type='func-type' binding='weak-binding' visibility='default-visibility' is-defined='yes'/>
    <elf-symbol name='_ZNK9__gnu_cxx17__normal_iteratorIPKN2PJ3sdk15NamedFieldValueESt4spanIS4_Lm18446744073709551615EEEdeEv' type='func-type' binding='weak-binding' visibility='default-visibility' is-defined='yes'/>
    <elf-symbol name='_ZNKRSt8__detail9__variant14_UninitializedIN2PJ3sdk9TypedNullELb1EE6_M_getEv' type='func-type' binding='weak-binding' visibility='default-visibility' is-defined='yes'/>
    <elf-symbol name='_ZNKRSt8__detail9__variant14_UninitializedIN2PJ9NullValueELb1EE6_M_getEv' type='func-type' binding='weak-binding' visibility='default-visibility' is-defined='yes'/>
    <elf-symbol name='_ZNKRSt8__detail9__variant14_UninitializedISt17basic_string_viewIcSt11char_traitsIcEELb1EE6_M_getEv' type='func-type' binding='weak-binding' visibility='default-visibility' is-defined='yes'/>
    <elf-symbol name='_ZNKRSt8__detail9__variant14_UninitializedIaLb1EE6_M_getEv' type='func-type' binding='weak-binding' visibility='default-visibility' is-defined='yes'/>
    <elf-symbol name='_ZNKRSt8__detail9__variant14_UninitializedIbLb1EE6_M_getEv' type='func-type' binding='weak-binding' visibility='default-visibility' is-defined='yes'/>
    <elf-symbol name='_ZNKRSt8__detail9__variant14_UninitializedIdLb1EE6_M_getEv' type='func-type' binding='weak-binding' visibility='default-visibility' is-defined='yes'/>
    <elf-symbol name='_ZNKRSt8__detail9__variant14_UninitializedIfLb1EE6_M_getEv' type='func-type' binding='weak-binding' visibility='default-visibility' is-defined='yes'/>
    <elf-symbol name='_ZNKRSt8__detail9__variant14_UninitializedIhLb1EE6_M_getEv' type='func-type' binding='weak-binding' visibility='default-visibility' is-defined='yes'/>
    <elf-symbol name='_ZNKRSt8__detail9__variant14_UninitializedIiLb1EE6_M_getEv' type='func-type' binding='weak-binding' visibility='default-visibility' is-defined='yes'/>
    <elf-symbol name='_ZNKRSt8__detail9__variant14_UninitializedIjLb1EE6_M_getEv' type='func-type' binding='weak-binding' visibility='default-visibility' is-defined='yes'/>
    <elf-symbol name='_ZNKRSt8__detail9__variant14_UninitializedIlLb1EE6_M_getEv' type='func-type' binding='weak-binding' visibility='default-visibility' is-defined='yes'/>
    <elf-symbol name='_ZNKRSt8__detail9__variant14_UninitializedImLb1EE6_M_getEv' type='func-type' binding='weak-binding' visibility='default-visibility' is-defined='yes'/>
    <elf-symbol name='_ZNKRSt8__detail9__variant14_UninitializedIsLb1EE6_M_getEv' type='func-type' binding='weak-binding' visibility='default-visibility' is-defined='yes'/>
    <elf-symbol name='_ZNKRSt8__detail9__variant14_UninitializedItLb1EE6_M_getEv' type='func-type' binding='weak-binding' visibility='default-visibility' is-defined='yes'/>
    <elf-symbol name='_ZNKSt12_Vector_baseI22PJ_named_field_value_tSaIS0_EE19_M_get_Tp_allocatorEv' type='func-type' binding='weak-binding' visibility='default-visibility' is-defined='yes'/>
    <elf-symbol name='_ZNKSt16initializer_listIN2PJ3sdk15NamedFieldValueEE4sizeEv' type='func-type' binding='weak-binding' visibility='default-visibility' is-defined='yes'/>
    <elf-symbol name='_ZNKSt16initializer_listIN2PJ3sdk15NamedFieldValueEE5beginEv' type='func-type' binding='weak-binding' visibility='default-visibility' is-defined='yes'/>
    <elf-symbol name='_ZNKSt17basic_string_viewIcSt11char_traitsIcEE4dataEv' type='func-type' binding='weak-binding' visibility='default-visibility' is-defined='yes'/>
    <elf-symbol name='_ZNKSt17basic_string_viewIcSt11char_traitsIcEE4sizeEv' type='func-type' binding='weak-binding' visibility='default-visibility' is-defined='yes'/>
    <elf-symbol name='_ZNKSt18bad_variant_access4whatEv' type='func-type' binding='weak-binding' visibility='default-visibility' is-defined='yes'/>
    <elf-symbol name='_ZNKSt4lessIPKcEclES1_S1_' type='func-type' binding='weak-binding' visibility='default-visibility' is-defined='yes'/>
    <elf-symbol name='_ZNKSt4spanIKN2PJ3sdk15NamedFieldValueELm18446744073709551615EE3endEv' type='func-type' binding='weak-binding' visibility='default-visibility' is-defined='yes'/>
    <elf-symbol name='_ZNKSt4spanIKN2PJ3sdk15NamedFieldValueELm18446744073709551615EE4sizeEv' type='func-type' binding='weak-binding' visibility='default-visibility' is-defined='yes'/>
    <elf-symbol name='_ZNKSt4spanIKN2PJ3sdk15NamedFieldValueELm18446744073709551615EE5beginEv' type='func-type' binding='weak-binding' visibility='default-visibility' is-defined='yes'/>
    <elf-symbol name='_ZNKSt4spanIKhLm18446744073709551615EE4dataEv' type='func-type' binding='weak-binding' visibility='default-visibility' is-defined='yes'/>
    <elf-symbol name='_ZNKSt4spanIKhLm18446744073709551615EE4sizeEv' type='func-type' binding='weak-binding' visibility='default-visibility' is-defined='yes'/>
    <elf-symbol name='_ZNKSt6vectorI22PJ_named_field_value_tSaIS0_EE11_M_data_ptrIS0_EEPT_S5_' type='func-type' binding='weak-binding' visibility='default-visibility' is-defined='yes'/>
    <elf-symbol name='_ZNKSt6vectorI22PJ_named_field_value_tSaIS0_EE12_M_check_lenEmPKc' type='func-type' binding='weak-binding' visibility='default-visibility' is-defined='yes'/>
    <elf-symbol name='_ZNKSt6vectorI22PJ_named_field_value_tSaIS0_EE4sizeEv' type='func-type' binding='weak-binding' visibility='default-visibility' is-defined='yes'/>
    <elf-symbol name='_ZNKSt6vectorI22PJ_named_field_value_tSaIS0_EE8capacityEv' type='func-type' binding='weak-binding' visibility='default-visibility' is-defined='yes'/>
    <elf-symbol name='_ZNKSt6vectorI22PJ_named_field_value_tSaIS0_EE8max_sizeEv' type='func-type' binding='weak-binding' visibility='default-visibility' is-defined='yes'/>
    <elf-symbol name='_ZNKSt7__cxx1112basic_stringIcSt11char_traitsIcESaIcEE11_M_disjunctEPKc' type='func-type' binding='weak-binding' visibility='default-visibility' is-defined='yes'/>
    <elf-symbol name='_ZNKSt7__cxx1112basic_stringIcSt11char_traitsIcESaIcEE11_M_is_localEv' type='func-type' binding='weak-binding' visibility='default-visibility' is-defined='yes'/>
    <elf-symbol name='_ZNKSt7__cxx1112basic_stringIcSt11char_traitsIcESaIcEE13_M_local_dataEv' type='func-type' binding='weak-binding' visibility='default-visibility' is-defined='yes'/>
    <elf-symbol name='_ZNKSt7__cxx1112basic_stringIcSt11char_traitsIcESaIcEE15_M_check_lengthEmmPKc' type='func-type' binding='weak-binding' visibility='default-visibility' is-defined='yes'/>
    <elf-symbol name='_ZNKSt7__cxx1112basic_stringIcSt11char_traitsIcESaIcEE16_M_get_allocatorEv' type='func-type' binding='weak-binding' visibility='default-visibility' is-defined='yes'/>
    <elf-symbol name='_ZNKSt7__cxx1112basic_stringIcSt11char_traitsIcESaIcEE4dataEv' type='func-type' binding='weak-binding' visibility='default-visibility' is-defined='yes'/>
    <elf-symbol name='_ZNKSt7__cxx1112basic_stringIcSt11char_traitsIcESaIcEE4findEPKcm' type='func-type' binding='weak-binding' visibility='default-visibility' is-defined='yes'/>
    <elf-symbol name='_ZNKSt7__cxx1112basic_stringIcSt11char_traitsIcESaIcEE4findEPKcmm' type='func-type' binding='weak-binding' visibility='default-visibility' is-defined='yes'/>
    <elf-symbol name='_ZNKSt7__cxx1112basic_stringIcSt11char_traitsIcESaIcEE4sizeEv' type='func-type' binding='weak-binding' visibility='default-visibility' is-defined='yes'/>
    <elf-symbol name='_ZNKSt7__cxx1112basic_stringIcSt11char_traitsIcESaIcEE5emptyEv' type='func-type' binding='weak-binding' visibility='default-visibility' is-defined='yes'/>
    <elf-symbol name='_ZNKSt7__cxx1112basic_stringIcSt11char_traitsIcESaIcEE6lengthEv' type='func-type' binding='weak-binding' visibility='default-visibility' is-defined='yes'/>
    <elf-symbol name='_ZNKSt7__cxx1112basic_stringIcSt11char_traitsIcESaIcEE7_M_dataEv' type='func-type' binding='weak-binding' visibility='default-visibility' is-defined='yes'/>
    <elf-symbol name='_ZNKSt7__cxx1112basic_stringIcSt11char_traitsIcESaIcEE8capacityEv' type='func-type' binding='weak-binding' visibility='default-visibility' is-defined='yes'/>
    <elf-symbol name='_ZNKSt7__cxx1112basic_stringIcSt11char_traitsIcESaIcEE8max_sizeEv' type='func-type' binding='weak-binding' visibility='default-visibility' is-defined='yes'/>
    <elf-symbol name='_ZNKSt7__cxx1112basic_stringIcSt11char_traitsIcESaIcEEcvSt17basic_string_viewIcS2_EEv' type='func-type' binding='weak-binding' visibility='default-visibility' is-defined='yes'/>
    <elf-symbol name='_ZNKSt7variantIJ17PJ_topic_handle_tNSt7__cxx1112basic_stringIcSt11char_traitsIcESaIcEEEEE22valueless_by_exceptionEv' type='func-type' binding='weak-binding' visibility='default-visibility' is-defined='yes'/>
    <elf-symbol name='_ZNKSt7variantIJ17PJ_topic_handle_tNSt7__cxx1112basic_stringIcSt11char_traitsIcESaIcEEEEE5indexEv' type='func-type' binding='weak-binding' visibility='default-visibility' is-defined='yes'/>
    <elf-symbol name='_ZNKSt7variantIJ26PJ_parser_binding_handle_tNSt7__cxx1112basic_stringIcSt11char_traitsIcESaIcEEEEE22valueless_by_exceptionEv' type='func-type' binding='weak-binding' visibility='default-visibility' is-defined='yes'/>
    <elf-symbol name='_ZNKSt7variantIJ26PJ_parser_binding_handle_tNSt7__cxx1112basic_stringIcSt11char_traitsIcESaIcEEEEE5indexEv' type='func-type' binding='weak-binding' visibility='default-visibility' is-defined='yes'/>
    <elf-symbol name='_ZNKSt7variantIJN2PJ25DataSourceRuntimeHostViewENSt7__cxx1112basic_stringIcSt11char_traitsIcESaIcEEEEE22valueless_by_exceptionEv' type='func-type' binding='weak-binding' visibility='default-visibility' is-defined='yes'/>
    <elf-symbol name='_ZNKSt7variantIJN2PJ25DataSourceRuntimeHostViewENSt7__cxx1112basic_stringIcSt11char_traitsIcESaIcEEEEE5indexEv' type='func-type' binding='weak-binding' visibility='default-visibility' is-defined='yes'/>
    <elf-symbol name='_ZNKSt7variantIJN2PJ3sdk19SourceWriteHostViewENSt7__cxx1112basic_stringIcSt11char_traitsIcESaIcEEEEE22valueless_by_exceptionEv' type='func-type' binding='weak-binding' visibility='default-visibility' is-defined='yes'/>
    <elf-symbol name='_ZNKSt7variantIJN2PJ3sdk19SourceWriteHostViewENSt7__cxx1112basic_stringIcSt11char_traitsIcESaIcEEEEE5indexEv' type='func-type' binding='weak-binding' visibility='default-visibility' is-defined='yes'/>
    <elf-symbol name='_ZNKSt7variantIJN2PJ9NullValueENS0_3sdk9TypedNullEfdasilhtjmbSt17basic_string_viewIcSt11char_traitsIcEEEE22valueless_by_exceptionEv' type='func-type' binding='weak-binding' visibility='default-visibility' is-defined='yes'/>
    <elf-symbol name='_ZNKSt7variantIJN2PJ9NullValueENS0_3sdk9TypedNullEfdasilhtjmbSt17basic_string_viewIcSt11char_traitsIcEEEE5indexEv' type='func-type' binding='weak-binding' visibility='default-visibility' is-defined='yes'/>
    <elf-symbol name='_ZNKSt8__detail16__extent_storageILm18446744073709551615EE9_M_extentEv' type='func-type' binding='weak-binding' visibility='default-visibility' is-defined='yes'/>
    <elf-symbol name='_ZNKSt8__detail9__variant12_Multi_arrayIPFNS0_21__deduce_visit_resultIN2PJ13PrimitiveTypeEEEOZNS3_3sdk6typeOfERKSt7variantIJNS3_9NullValueENS6_9TypedNullEfdasilhtjmbSt17basic_string_viewIcSt11char_traitsIcEEEEEUlOT_E_SG_EJEE9_M_accessEv' type='func-type' binding='weak-binding' visibility='default-visibility' is-defined='yes'/>
    <elf-symbol name='_ZNKSt8__detail9__variant12_Multi_arrayIPFNS0_21__deduce_visit_resultIN2PJ13PrimitiveTypeEEEOZNS3_3sdk6typeOfERKSt7variantIJNS3_9NullValueENS6_9TypedNullEfdasilhtjmbSt17basic_string_viewIcSt11char_traitsIcEEEEEUlOT_E_SG_EJLm14EEE9_M_accessIJEEEDcmDpT_' type='func-type' binding='weak-binding' visibility='default-visibility' is-defined='yes'/>
    <elf-symbol name='_ZNKSt8__detail9__variant12_Multi_arrayIPFNS0_21__deduce_visit_resultIvEEOZN2PJ3sdk11toAbiScalarERKSt7variantIJNS4_9NullValueENS5_9TypedNullEfdasilhtjmbSt17basic_string_viewIcSt11char_traitsIcEEEEEUlOT_E_SF_EJEE9_M_accessEv' type='func-type' binding='weak-binding' visibility='default-visibility' is-defined='yes'/>
    <elf-symbol name='_ZNKSt8__detail9__variant12_Multi_arrayIPFNS0_21__deduce_visit_resultIvEEOZN2PJ3sdk11toAbiScalarERKSt7variantIJNS4_9NullValueENS5_9TypedNullEfdasilhtjmbSt17basic_string_viewIcSt11char_traitsIcEEEEEUlOT_E_SF_EJLm14EEE9_M_accessIJEEEDcmDpT_' type='func-type' binding='weak-binding' visibility='default-visibility' is-defined='yes'/>
    <elf-symbol name='_ZNKSt8__detail9__variant12_Multi_arrayIPFvOZNS0_16_Variant_storageILb0EJ17PJ_topic_handle_tNSt7__cxx1112basic_stringIcSt11char_traitsIcESaIcEEEEE8_M_resetEvEUlOT_E_RSt7variantIJS3_S9_EEEJEE9_M_accessEv' type='func-type' binding='weak-binding' visibility='default-visibility' is-defined='yes'/>
    <elf-symbol name='_ZNKSt8__detail9__variant12_Multi_arrayIPFvOZNS0_16_Variant_storageILb0EJ17PJ_topic_handle_tNSt7__cxx1112basic_stringIcSt11char_traitsIcESaIcEEEEE8_M_resetEvEUlOT_E_RSt7variantIJS3_S9_EEEJLm2EEE9_M_accessIJEEEDcmDpT_' type='func-type' binding='weak-binding' visibility='default-visibility' is-defined='yes'/>
    <elf-symbol name='_ZNKSt8__detail9__variant12_Multi_arrayIPFvOZNS0_16_Variant_storageILb0EJ26PJ_parser_binding_handle_tNSt7__cxx1112basic_stringIcSt11char_traitsIcESaIcEEEEE8_M_resetEvEUlOT_E_RSt7variantIJS3_S9_EEEJEE9_M_accessEv' type='func-type' binding='weak-binding' visibility='default-visibility' is-defined='yes'/>
    <elf-symbol name='_ZNKSt8__detail9__variant12_Multi_arrayIPFvOZNS0_16_Variant_storageILb0EJ26PJ_parser_binding_handle_tNSt7__cxx1112basic_stringIcSt11char_traitsIcESaIcEEEEE8_M_resetEvEUlOT_E_RSt7variantIJS3_S9_EEEJLm2EEE9_M_accessIJEEEDcmDpT_' type='func-type' binding='weak-binding' visibility='default-visibility' is-defined='yes'/>
    <elf-symbol name='_ZNKSt8__detail9__variant12_Multi_arrayIPFvOZNS0_16_Variant_storageILb0EJN2PJ25DataSourceRuntimeHostViewENSt7__cxx1112basic_stringIcSt11char_traitsIcESaIcEEEEE8_M_resetEvEUlOT_E_RSt7variantIJS4_SA_EEEJEE9_M_accessEv' type='func-type' binding='weak-binding' visibility='default-visibility' is-defined='yes'/>
    <elf-symbol name='_ZNKSt8__detail9__variant12_Multi_arrayIPFvOZNS0_16_Variant_storageILb0EJN2PJ25DataSourceRuntimeHostViewENSt7__cxx1112basic_stringIcSt11char_traitsIcESaIcEEEEE8_M_resetEvEUlOT_E_RSt7variantIJS4_SA_EEEJLm2EEE9_M_accessIJEEEDcmDpT_' type='func-type' binding='weak-binding' visibility='default-visibility' is-defined='yes'/>
    <elf-symbol name='_ZNKSt8__detail9__variant12_Multi_arrayIPFvOZNS0_16_Variant_storageILb0EJN2PJ3sdk19SourceWriteHostViewENSt7__cxx1112basic_stringIcSt11char_traitsIcESaIcEEEEE8_M_resetEvEUlOT_E_RSt7variantIJS5_SB_EEEJEE9_M_accessEv' type='func-type' binding='weak-binding' visibility='default-visibility' is-defined='yes'/>
    <elf-symbol name='_ZNKSt8__detail9__variant12_Multi_arrayIPFvOZNS0_16_Variant_storageILb0EJN2PJ3sdk19SourceWriteHostViewENSt7__cxx1112basic_stringIcSt11char_traitsIcESaIcEEEEE8_M_resetEvEUlOT_E_RSt7variantIJS5_SB_EEEJLm2EEE9_M_accessIJEEEDcmDpT_' type='func-type' binding='weak-binding' visibility='default-visibility' is-defined='yes'/>
    <elf-symbol name='_ZNKSt8__detail9__variant16_Variant_storageILb0EJ17PJ_topic_handle_tNSt7__cxx1112basic_stringIcSt11char_traitsIcESaIcEEEEE8_M_validEv' type='func-type' binding='weak-binding' visibility='default-visibility' is-defined='yes'/>
    <elf-symbol name='_ZNKSt8__detail9__variant16_Variant_storageILb0EJ26PJ_parser_binding_handle_tNSt7__cxx1112basic_stringIcSt11char_traitsIcESaIcEEEEE8_M_validEv' type='func-type' binding='weak-binding' visibility='default-visibility' is-defined='yes'/>
    <elf-symbol name='_ZNKSt8__detail9__variant16_Variant_storageILb0EJN2PJ25DataSourceRuntimeHostViewENSt7__cxx1112basic_stringIcSt11char_traitsIcESaIcEEEEE8_M_validEv' type='func-type' binding='weak-binding' visibility='default-visibility' is-defined='yes'/>
    <elf-symbol name='_ZNKSt8__detail9__variant16_Variant_storageILb0EJN2PJ3sdk19SourceWriteHostViewENSt7__cxx1112basic_stringIcSt11char_traitsIcESaIcEEEEE8_M_validEv' type='func-type' binding='weak-binding' visibility='default-visibility' is-defined='yes'/>
    <elf-symbol name='_ZNKSt8__detail9__variant16_Variant_storageILb1EJN2PJ9NullValueENS2_3sdk9TypedNullEfdasilhtjmbSt17basic_string_viewIcSt11char_traitsIcEEEE8_M_validEv' type='func-type' binding='weak-binding' visibility='default-visibility' is-defined='yes'/>
    <elf-symbol name='_ZNO2PJ10UnexpectedINSt7__cxx1112basic_stringIcSt11char_traitsIcESaIcEEEE5valueEv' type='func-type' binding='weak-binding' visibility='default-visibility' is-defined='yes'/>
    <elf-symbol name='_ZNO2PJ8ExpectedINS_25DataSourceRuntimeHostViewENSt7__cxx1112basic_stringIcSt11char_traitsIcESaIcEEEE5errorEv' type='func-type' binding='weak-binding' visibility='default-visibility' is-defined='yes'/>
    <elf-symbol name='_ZNO2PJ8ExpectedINS_3sdk19SourceWriteHostViewENSt7__cxx1112basic_stringIcSt11char_traitsIcESaIcEEEE5errorEv' type='func-type' binding='weak-binding' visibility='default-visibility' is-defined='yes'/>
    <elf-symbol name='_ZNO2PJ8ExpectedIvNSt7__cxx1112basic_stringIcSt11char_traitsIcESaIcEEEE5errorEv' type='func-type' binding='weak-binding' visibility='default-visibility' is-defined='yes'/>
    <elf-symbol name='_ZNR2PJ8ExpectedI17PJ_topic_handle_tNSt7__cxx1112basic_stringIcSt11char_traitsIcESaIcEEEE5errorEv' type='func-type' binding='weak-binding' visibility='default-visibility' is-defined='yes'/>
    <elf-symbol name='_ZNR2PJ8ExpectedI17PJ_topic_handle_tNSt7__cxx1112basic_stringIcSt11char_traitsIcESaIcEEEE5valueEv' type='func-type' binding='weak-binding' visibility='default-visibility' is-defined='yes'/>
    <elf-symbol name='_ZNR2PJ8ExpectedI17PJ_topic_handle_tNSt7__cxx1112basic_stringIcSt11char_traitsIcESaIcEEEEdeEv' type='func-type' binding='weak-binding' visibility='default-visibility' is-defined='yes'/>
    <elf-symbol name='_ZNR2PJ8ExpectedI26PJ_parser_binding_handle_tNSt7__cxx1112basic_stringIcSt11char_traitsIcESaIcEEEE5errorEv' type='func-type' binding='weak-binding' visibility='default-visibility' is-defined='yes'/>
    <elf-symbol name='_ZNR2PJ8ExpectedI26PJ_parser_binding_handle_tNSt7__cxx1112basic_stringIcSt11char_traitsIcESaIcEEEE5valueEv' type='func-type' binding='weak-binding' visibility='default-visibility' is-defined='yes'/>
    <elf-symbol name='_ZNR2PJ8ExpectedI26PJ_parser_binding_handle_tNSt7__cxx1112basic_stringIcSt11char_traitsIcESaIcEEEEdeEv' type='func-type' binding='weak-binding' visibility='default-visibility' is-defined='yes'/>
    <elf-symbol name='_ZNR2PJ8ExpectedINS_25DataSourceRuntimeHostViewENSt7__cxx1112basic_stringIcSt11char_traitsIcESaIcEEEE5valueEv' type='func-type' binding='weak-binding' visibility='default-visibility' is-defined='yes'/>
    <elf-symbol name='_ZNR2PJ8ExpectedINS_25DataSourceRuntimeHostViewENSt7__cxx1112basic_stringIcSt11char_traitsIcESaIcEEEEdeEv' type='func-type' binding='weak-binding' visibility='default-visibility' is-defined='yes'/>
    <elf-symbol name='_ZNR2PJ8ExpectedINS_3sdk19SourceWriteHostViewENSt7__cxx1112basic_stringIcSt11char_traitsIcESaIcEEEE5valueEv' type='func-type' binding='weak-binding' visibility='default-visibility' is-defined='yes'/>
    <elf-symbol name='_ZNR2PJ8ExpectedINS_3sdk19SourceWriteHostViewENSt7__cxx1112basic_stringIcSt11char_traitsIcESaIcEEEEdeEv' type='func-type' binding='weak-binding' visibility='default-visibility' is-defined='yes'/>
    <elf-symbol name='_ZNR2PJ8ExpectedIvNSt7__cxx1112basic_stringIcSt11char_traitsIcESaIcEEEE5errorEv' type='func-type' binding='weak-binding' visibility='default-visibility' is-defined='yes'/>
    <elf-symbol name='_ZNRSt8__detail9__variant14_UninitializedI17PJ_topic_handle_tLb1EE6_M_getEv' type='func-type' binding='weak-binding' visibility='default-visibility' is-defined='yes'/>
    <elf-symbol name='_ZNRSt8__detail9__variant14_UninitializedI26PJ_parser_binding_handle_tLb1EE6_M_getEv' type='func-type' binding='weak-binding' visibility='default-visibility' is-defined='yes'/>
    <elf-symbol name='_ZNRSt8__detail9__variant14_UninitializedIN2PJ25DataSourceRuntimeHostViewELb1EE6_M_getEv' type='func-type' binding='weak-binding' visibility='default-visibility' is-defined='yes'/>
    <elf-symbol name='_ZNRSt8__detail9__variant14_UninitializedIN2PJ3sdk19SourceWriteHostViewELb1EE6_M_getEv' type='func-type' binding='weak-binding' visibility='default-visibility' is-defined='yes'/>
    <elf-symbol name='_ZNRSt8__detail9__variant14_UninitializedINSt7__cxx1112basic_stringIcSt11char_traitsIcESaIcEEELb0EE6_M_getEv' type='func-type' binding='weak-binding' visibility='default-visibility' is-defined='yes'/>
    <elf-symbol name='_ZNSaI22PJ_named_field_value_tEC1Ev' type='func-type' binding='weak-binding' visibility='default-visibility' is-defined='yes'/>
    <elf-symbol name='_ZNSaI22PJ_named_field_value_tEC2Ev' type='func-type' binding='weak-binding' visibility='default-visibility' alias='_ZNSaI22PJ_named_field_value_tEC1Ev' is-defined='yes'/>
    <elf-symbol name='_ZNSaI22PJ_named_field_value_tED1Ev' type='func-type' binding='weak-binding' visibility='default-visibility' is-defined='yes'/>
    <elf-symbol name='_ZNSaI22PJ_named_field_value_tED2Ev' type='func-type' binding='weak-binding' visibility='default-visibility' alias='_ZNSaI22PJ_named_field_value_tED1Ev' is-defined='yes'/>
    <elf-symbol name='_ZNSt11__copy_moveILb0ELb0ESt26random_access_iterator_tagE8__copy_mIPKcPcEET0_T_S7_S6_' type='func-type' binding='weak-binding' visibility='default-visibility' is-defined='yes'/>
    <elf-symbol name='_ZNSt11__copy_moveILb0ELb1ESt26random_access_iterator_tagE8__copy_mIcEEPT_PKS3_S6_S4_' type='func-type' binding='weak-binding' visibility='default-visibility' is-defined='yes'/>
    <elf-symbol name='_ZNSt11char_traitsIcE2ltERKcS2_' type='func-type' binding='weak-binding' visibility='default-visibility' is-defined='yes'/>
    <elf-symbol name='_ZNSt11char_traitsIcE4copyEPcPKcm' type='func-type' binding='weak-binding' visibility='default-visibility' is-defined='yes'/>
    <elf-symbol name='_ZNSt11char_traitsIcE4findEPKcmRS1_' type='func-type' binding='weak-binding' visibility='default-visibility' is-defined='yes'/>
    <elf-symbol name='_ZNSt11char_traitsIcE4moveEPcPKcm' type='func-type' binding='weak-binding' visibility='default-visibility' is-defined='yes'/>
    <elf-symbol name='_ZNSt11char_traitsIcE6assignERcRKc' type='func-type' binding='weak-binding' visibility='default-visibility' is-defined='yes'/>
    <elf-symbol name='_ZNSt11char_traitsIcE6lengthEPKc' type='func-type' binding='weak-binding' visibility='default-visibility' is-defined='yes'/>
    <elf-symbol name='_ZNSt11char_traitsIcE7compareEPKcS2_m' type='func-type' binding='weak-binding' visibility='default-visibility' is-defined='yes'/>
    <elf-symbol name='_ZNSt12_Destroy_auxILb0EE9__destroyIP22PJ_named_field_value_tEEvT_S4_' type='func-type' binding='weak-binding' visibility='default-visibility' is-defined='yes'/>
    <elf-symbol name='_ZNSt12_Destroy_auxILb1EE9__destroyIP22PJ_named_field_value_tEEvT_S4_' type='func-type' binding='weak-binding' visibility='default-visibility' is-defined='yes'/>
    <elf-symbol name='_ZNSt12_Vector_baseI22PJ_named_field_value_tSaIS0_EE11_M_allocateEm' type='func-type' binding='weak-binding' visibility='default-visibility' is-defined='yes'/>
    <elf-symbol name='_ZNSt12_Vector_baseI22PJ_named_field_value_tSaIS0_EE12_Vector_implC1Ev' type='func-type' binding='weak-binding' visibility='default-visibility' is-defined='yes'/>
    <elf-symbol name='_ZNSt12_Vector_baseI22PJ_named_field_value_tSaIS0_EE12_Vector_implC2Ev' type='func-type' binding='weak-binding' visibility='default-visibility' alias='_ZNSt12_Vector_baseI22PJ_named_field_value_tSaIS0_EE12_Vector_implC1Ev' is-defined='yes'/>
    <elf-symbol name='_ZNSt12_Vector_baseI22PJ_named_field_value_tSaIS0_EE12_Vector_implD1Ev' type='func-type' binding='weak-binding' visibility='default-visibility' alias='_ZNSt12_Vector_baseI22PJ_named_field_value_tSaIS0_EE12_Vector_implD2Ev' is-defined='yes'/>
    <elf-symbol name='_ZNSt12_Vector_baseI22PJ_named_field_value_tSaIS0_EE12_Vector_implD2Ev' type='func-type' binding='weak-binding' visibility='default-visibility' is-defined='yes'/>
    <elf-symbol name='_ZNSt12_Vector_baseI22PJ_named_field_value_tSaIS0_EE13_M_deallocateEPS0_m' type='func-type' binding='weak-binding' visibility='default-visibility' is-defined='yes'/>
    <elf-symbol name='_ZNSt12_Vector_baseI22PJ_named_field_value_tSaIS0_EE17_Vector_impl_dataC1Ev' type='func-type' binding='weak-binding' visibility='default-visibility' is-defined='yes'/>
    <elf-symbol name='_ZNSt12_Vector_baseI22PJ_named_field_value_tSaIS0_EE17_Vector_impl_dataC2Ev' type='func-type' binding='weak-binding' visibility='default-visibility' alias='_ZNSt12_Vector_baseI22PJ_named_field_value_tSaIS0_EE17_Vector_impl_dataC1Ev' is-defined='yes'/>
    <elf-symbol name='_ZNSt12_Vector_baseI22PJ_named_field_value_tSaIS0_EE19_M_get_Tp_allocatorEv' type='func-type' binding='weak-binding' visibility='default-visibility' is-defined='yes'/>
    <elf-symbol name='_ZNSt12_Vector_baseI22PJ_named_field_value_tSaIS0_EEC1Ev' type='func-type' binding='weak-binding' visibility='default-visibility' is-defined='yes'/>
    <elf-symbol name='_ZNSt12_Vector_baseI22PJ_named_field_value_tSaIS0_EEC2Ev' type='func-type' binding='weak-binding' visibility='default-visibility' alias='_ZNSt12_Vector_baseI22PJ_named_field_value_tSaIS0_EEC1Ev' is-defined='yes'/>
    <elf-symbol name='_ZNSt12_Vector_baseI22PJ_named_field_value_tSaIS0_EED1Ev' type='func-type' binding='weak-binding' visibility='default-visibility' is-defined='yes'/>
    <elf-symbol name='_ZNSt12_Vector_baseI22PJ_named_field_value_tSaIS0_EED2Ev' type='func-type' binding='weak-binding' visibility='default-visibility' alias='_ZNSt12_Vector_baseI22PJ_named_field_value_tSaIS0_EED1Ev' is-defined='yes'/>
    <elf-symbol name='_ZNSt14pointer_traitsIPKcE10pointer_toERS0_' type='func-type' binding='weak-binding' visibility='default-visibility' is-defined='yes'/>
    <elf-symbol name='_ZNSt14pointer_traitsIPcE10pointer_toERc' type='func-type' binding='weak-binding' visibility='default-visibility' is-defined='yes'/>
    <elf-symbol name='_ZNSt16allocator_traitsISaI22PJ_named_field_value_tEE10deallocateERS1_PS0_m' type='func-type' binding='weak-binding' visibility='default-visibility' is-defined='yes'/>
    <elf-symbol name='_ZNSt16allocator_traitsISaI22PJ_named_field_value_tEE8allocateERS1_m' type='func-type' binding='weak-binding' visibility='default-visibility' is-defined='yes'/>
    <elf-symbol name='_ZNSt16allocator_traitsISaI22PJ_named_field_value_tEE8max_sizeERKS1_' type='func-type' binding='weak-binding' visibility='default-visibility' is-defined='yes'/>
    <elf-symbol name='_ZNSt16allocator_traitsISaI22PJ_named_field_value_tEE9constructIS0_JS0_EEEvRS1_PT_DpOT0_' type='func-type' binding='weak-binding' visibility='default-visibility' is-defined='yes'/>
    <elf-symbol name='_ZNSt16allocator_traitsISaIcEE10deallocateERS0_Pcm' type='func-type' binding='weak-binding' visibility='default-visibility' is-defined='yes'/>
    <elf-symbol name='_ZNSt16allocator_traitsISaIcEE37select_on_container_copy_constructionERKS0_' type='func-type' binding='weak-binding' visibility='default-visibility' is-defined='yes'/>
    <elf-symbol name='_ZNSt16allocator_traitsISaIcEE8allocateERS0_m' type='func-type' binding='weak-binding' visibility='default-visibility' is-defined='yes'/>
    <elf-symbol name='_ZNSt16allocator_traitsISaIcEE8max_sizeERKS0_' type='func-type' binding='weak-binding' visibility='default-visibility' is-defined='yes'/>
    <elf-symbol name='_ZNSt17basic_string_viewIcSt11char_traitsIcEEC1EPKc' type='func-type' binding='weak-binding' visibility='default-visibility' is-defined='yes'/>
    <elf-symbol name='_ZNSt17basic_string_viewIcSt11char_traitsIcEEC1EPKcm' type='func-type' binding='weak-binding' visibility='default-visibility' is-defined='yes'/>
    <elf-symbol name='_ZNSt17basic_string_viewIcSt11char_traitsIcEEC1Ev' type='func-type' binding='weak-binding' visibility='default-visibility' is-defined='yes'/>
    <elf-symbol name='_ZNSt17basic_string_viewIcSt11char_traitsIcEEC2Ev' type='func-type' binding='weak-binding' visibility='default-visibility' alias='_ZNSt17basic_string_viewIcSt11char_traitsIcEEC1Ev' is-defined='yes'/>
    <elf-symbol name='_ZNSt18bad_variant_accessC1EPKc' type='func-type' binding='weak-binding' visibility='default-visibility' is-defined='yes'/>
    <elf-symbol name='_ZNSt18bad_variant_accessC2EPKc' type='func-type' binding='weak-binding' visibility='default-visibility' alias='_ZNSt18bad_variant_accessC1EPKc' is-defined='yes'/>
    <elf-symbol name='_ZNSt18bad_variant_accessD0Ev' type='func-type' binding='weak-binding' visibility='default-visibility' is-defined='yes'/>
    <elf-symbol name='_ZNSt18bad_variant_accessD1Ev' type='func-type' binding='weak-binding' visibility='default-visibility' alias='_ZNSt18bad_variant_accessD2Ev' is-defined='yes'/>
    <elf-symbol name='_ZNSt18bad_variant_accessD2Ev' type='func-type' binding='weak-binding' visibility='default-visibility' is-defined='yes'/>
    <elf-symbol name='_ZNSt27_Enable_default_constructorILb1ESt7variantIJ17PJ_topic_handle_tNSt7__cxx1112basic_stringIcSt11char_traitsIcESaIcEEEEEEC1ESt31_Enable_default_constructor_tag' type='func-type' binding='weak-binding' visibility='default-visibility' is-defined='yes'/>
    <elf-symbol name='_ZNSt27_Enable_default_constructorILb1ESt7variantIJ17PJ_topic_handle_tNSt7__cxx1112basic_stringIcSt11char_traitsIcESaIcEEEEEEC2ESt31_Enable_default_constructor_tag' type='func-type' binding='weak-binding' visibility='default-visibility' alias='_ZNSt27_Enable_default_constructorILb1ESt7variantIJ17PJ_topic_handle_tNSt7__cxx1112basic_stringIcSt11char_traitsIcESaIcEEEEEEC1ESt31_Enable_default_constructor_tag' is-defined='yes'/>
    <elf-symbol name='_ZNSt27_Enable_default_constructorILb1ESt7variantIJ26PJ_parser_binding_handle_tNSt7__cxx1112basic_stringIcSt11char_traitsIcESaIcEEEEEEC1ESt31_Enable_default_constructor_tag' type='func-type' binding='weak-binding' visibility='default-visibility' is-defined='yes'/>
    <elf-symbol name='_ZNSt27_Enable_default_constructorILb1ESt7variantIJ26PJ_parser_binding_handle_tNSt7__cxx1112basic_stringIcSt11char_traitsIcESaIcEEEEEEC2ESt31_Enable_default_constructor_tag' type='func-type' binding='weak-binding' visibility='default-visibility' alias='_ZNSt27_Enable_default_constructorILb1ESt7variantIJ26PJ_parser_binding_handle_tNSt7__cxx1112basic_stringIcSt11char_traitsIcESaIcEEEEEEC1ESt31_Enable_default_constructor_tag' is-defined='yes'/>
    <elf-symbol name='_ZNSt27_Enable_default_constructorILb1ESt7variantIJN2PJ25DataSourceRuntimeHostViewENSt7__cxx1112basic_stringIcSt11char_traitsIcESaIcEEEEEEC1ESt31_Enable_default_constructor_tag' type='func-type' binding='weak-binding' visibility='default-visibility' is-defined='yes'/>
    <elf-symbol name='_ZNSt27_Enable_default_constructorILb1ESt7variantIJN2PJ25DataSourceRuntimeHostViewENSt7__cxx1112basic_stringIcSt11char_traitsIcESaIcEEEEEEC2ESt31_Enable_default_constructor_tag' type='func-type' binding='weak-binding' visibility='default-visibility' alias='_ZNSt27_Enable_default_constructorILb1ESt7variantIJN2PJ25DataSourceRuntimeHostViewENSt7__cxx1112basic_stringIcSt11char_traitsIcESaIcEEEEEEC1ESt31_Enable_default_constructor_tag' is-defined='yes'/>
    <elf-symbol name='_ZNSt27_Enable_default_constructorILb1ESt7variantIJN2PJ3sdk19SourceWriteHostViewENSt7__cxx1112basic_stringIcSt11char_traitsIcESaIcEEEEEEC1ESt31_Enable_default_constructor_tag' type='func-type' binding='weak-binding' visibility='default-visibility' is-defined='yes'/>
    <elf-symbol name='_ZNSt27_Enable_default_constructorILb1ESt7variantIJN2PJ3sdk19SourceWriteHostViewENSt7__cxx1112basic_stringIcSt11char_traitsIcESaIcEEEEEEC2ESt31_Enable_default_constructor_tag' type='func-type' binding='weak-binding' visibility='default-visibility' alias='_ZNSt27_Enable_default_constructorILb1ESt7variantIJN2PJ3sdk19SourceWriteHostViewENSt7__cxx1112basic_stringIcSt11char_traitsIcESaIcEEEEEEC1ESt31_Enable_default_constructor_tag' is-defined='yes'/>
    <elf-symbol name='_ZNSt4spanIKN2PJ3sdk15NamedFieldValueELm18446744073709551615EEC1IPS3_EET_m' type='func-type' binding='weak-binding' visibility='default-visibility' is-defined='yes'/>
    <elf-symbol name='_ZNSt4spanIKN2PJ3sdk15NamedFieldValueELm18446744073709551615EEC2IPS3_EET_m' type='func-type' binding='weak-binding' visibility='default-visibility' alias='_ZNSt4spanIKN2PJ3sdk15NamedFieldValueELm18446744073709551615EEC1IPS3_EET_m' is-defined='yes'/>
    <elf-symbol name='_ZNSt4spanIKhLm18446744073709551615EEC1IPS0_EET_m' type='func-type' binding='weak-binding' visibility='default-visibility' is-defined='yes'/>
    <elf-symbol name='_ZNSt6vectorI22PJ_named_field_value_tSaIS0_EE11_S_max_sizeERKS1_' type='func-type' binding='weak-binding' visibility='default-visibility' is-defined='yes'/>
    <elf-symbol name='_ZNSt6vectorI22PJ_named_field_value_tSaIS0_EE11_S_relocateEPS0_S3_S3_RS1_' type='func-type' binding='weak-binding' visibility='default-visibility' is-defined='yes'/>
    <elf-symbol name='_ZNSt6vectorI22PJ_named_field_value_tSaIS0_EE12emplace_backIJS0_EEERS0_DpOT_' type='func-type' binding='weak-binding' visibility='default-visibility' is-defined='yes'/>
    <elf-symbol name='_ZNSt6vectorI22PJ_named_field_value_tSaIS0_EE14_S_do_relocateEPS0_S3_S3_RS1_St17integral_constantIbLb1EE' type='func-type' binding='weak-binding' visibility='default-visibility' is-defined='yes'/>
    <elf-symbol name='_ZNSt6vectorI22PJ_named_field_value_tSaIS0_EE17_M_realloc_insertIJS0_EEEvN9__gnu_cxx17__normal_iteratorIPS0_S2_EEDpOT_' type='func-type' binding='weak-binding' visibility='default-visibility' is-defined='yes'/>
    <elf-symbol name='_ZNSt6vectorI22PJ_named_field_value_tSaIS0_EE3endEv' type='func-type' binding='weak-binding' visibility='default-visibility' is-defined='yes'/>
    <elf-symbol name='_ZNSt6vectorI22PJ_named_field_value_tSaIS0_EE4backEv' type='func-type' binding='weak-binding' visibility='default-visibility' is-defined='yes'/>
    <elf-symbol name='_ZNSt6vectorI22PJ_named_field_value_tSaIS0_EE4dataEv' type='func-type' binding='weak-binding' visibility='default-visibility' is-defined='yes'/>
    <elf-symbol name='_ZNSt6vectorI22PJ_named_field_value_tSaIS0_EE5beginEv' type='func-type' binding='weak-binding' visibility='default-visibility' is-defined='yes'/>
    <elf-symbol name='_ZNSt6vectorI22PJ_named_field_value_tSaIS0_EE7reserveEm' type='func-type' binding='weak-binding' visibility='default-visibility' is-defined='yes'/>
    <elf-symbol name='_ZNSt6vectorI22PJ_named_field_value_tSaIS0_EE9push_backEOS0_' type='func-type' binding='weak-binding' visibility='default-visibility' is-defined='yes'/>
    <elf-symbol name='_ZNSt6vectorI22PJ_named_field_value_tSaIS0_EEC1Ev' type='func-type' binding='weak-binding' visibility='default-visibility' is-defined='yes'/>
    <elf-symbol name='_ZNSt6vectorI22PJ_named_field_value_tSaIS0_EEC2Ev' type='func-type' binding='weak-binding' visibility='default-visibility' alias='_ZNSt6vectorI22PJ_named_field_value_tSaIS0_EEC1Ev' is-defined='yes'/>
    <elf-symbol name='_ZNSt6vectorI22PJ_named_field_value_tSaIS0_EED1Ev' type='func-type' binding='weak-binding' visibility='default-visibility' is-defined='yes'/>
    <elf-symbol name='_ZNSt6vectorI22PJ_named_field_value_tSaIS0_EED2Ev' type='func-type' binding='weak-binding' visibility='default-visibility' alias='_ZNSt6vectorI22PJ_named_field_value_tSaIS0_EED1Ev' is-defined='yes'/>
    <elf-symbol name='_ZNSt7__cxx1112basic_stringIcSt11char_traitsIcESaIcEE10_M_destroyEm' type='func-type' binding='weak-binding' visibility='default-visibility' is-defined='yes'/>
    <elf-symbol name='_ZNSt7__cxx1112basic_stringIcSt11char_traitsIcESaIcEE10_M_disposeEv' type='func-type' binding='weak-binding' visibility='default-visibility' is-defined='yes'/>
    <elf-symbol name='_ZNSt7__cxx1112basic_stringIcSt11char_traitsIcESaIcEE10_M_replaceEmmPKcm' type='func-type' binding='weak-binding' visibility='default-visibility' is-defined='yes'/>
    <elf-symbol name='_ZNSt7__cxx1112basic_stringIcSt11char_traitsIcESaIcEE11_M_capacityEm' type='func-type' binding='weak-binding' visibility='default-visibility' is-defined='yes'/>
    <elf-symbol name='_ZNSt7__cxx1112basic_stringIcSt11char_traitsIcESaIcEE12_Alloc_hiderC1EPcOS3_' type='func-type' binding='weak-binding' visibility='default-visibility' is-defined='yes'/>
    <elf-symbol name='_ZNSt7__cxx1112basic_stringIcSt11char_traitsIcESaIcEE12_Alloc_hiderC1EPcRKS3_' type='func-type' binding='weak-binding' visibility='default-visibility' is-defined='yes'/>
    <elf-symbol name='_ZNSt7__cxx1112basic_stringIcSt11char_traitsIcESaIcEE12_Alloc_hiderC2EPcOS3_' type='func-type' binding='weak-binding' visibility='default-visibility' alias='_ZNSt7__cxx1112basic_stringIcSt11char_traitsIcESaIcEE12_Alloc_hiderC1EPcOS3_' is-defined='yes'/>
    <elf-symbol name='_ZNSt7__cxx1112basic_stringIcSt11char_traitsIcESaIcEE12_Alloc_hiderC2EPcRKS3_' type='func-type' binding='weak-binding' visibility='default-visibility' alias='_ZNSt7__cxx1112basic_stringIcSt11char_traitsIcESaIcEE12_Alloc_hiderC1EPcRKS3_' is-defined='yes'/>
    <elf-symbol name='_ZNSt7__cxx1112basic_stringIcSt11char_traitsIcESaIcEE12_Alloc_hiderD1Ev' type='func-type' binding='weak-binding' visibility='default-visibility' alias='_ZNSt7__cxx1112basic_stringIcSt11char_traitsIcESaIcEE12_Alloc_hiderD2Ev' is-defined='yes'/>
    <elf-symbol name='_ZNSt7__cxx1112basic_stringIcSt11char_traitsIcESaIcEE12_Alloc_hiderD2Ev' type='func-type' binding='weak-binding' visibility='default-visibility' is-defined='yes'/>
    <elf-symbol name='_ZNSt7__cxx1112basic_stringIcSt11char_traitsIcESaIcEE12_M_constructIPKcEEvT_S8_' type='func-type' binding='weak-binding' visibility='default-visibility' is-defined='yes'/>
    <elf-symbol name='_ZNSt7__cxx1112basic_stringIcSt11char_traitsIcESaIcEE12_M_constructIPKcEEvT_S8_St20forward_iterator_tag' type='func-type' binding='weak-binding' visibility='default-visibility' is-defined='yes'/>
    <elf-symbol name='_ZNSt7__cxx1112basic_stringIcSt11char_traitsIcESaIcEE12_M_constructIPcEEvT_S7_' type='func-type' binding='weak-binding' visibility='default-visibility' is-defined='yes'/>
    <elf-symbol name='_ZNSt7__cxx1112basic_stringIcSt11char_traitsIcESaIcEE12_M_constructIPcEEvT_S7_St20forward_iterator_tag' type='func-type' binding='weak-binding' visibility='default-visibility' is-defined='yes'/>
    <elf-symbol name='_ZNSt7__cxx1112basic_stringIcSt11char_traitsIcESaIcEE12__sv_wrapperC1ESt17basic_string_viewIcS2_E' type='func-type' binding='weak-binding' visibility='default-visibility' is-defined='yes'/>
    <elf-symbol name='_ZNSt7__cxx1112basic_stringIcSt11char_traitsIcESaIcEE12__sv_wrapperC2ESt17basic_string_viewIcS2_E' type='func-type' binding='weak-binding' visibility='default-visibility' alias='_ZNSt7__cxx1112basic_stringIcSt11char_traitsIcESaIcEE12__sv_wrapperC1ESt17basic_string_viewIcS2_E' is-defined='yes'/>
    <elf-symbol name='_ZNSt7__cxx1112basic_stringIcSt11char_traitsIcESaIcEE13_M_local_dataEv' type='func-type' binding='weak-binding' visibility='default-visibility' is-defined='yes'/>
    <elf-symbol name='_ZNSt7__cxx1112basic_stringIcSt11char_traitsIcESaIcEE13_M_set_lengthEm' type='func-type' binding='weak-binding' visibility='default-visibility' is-defined='yes'/>
    <elf-symbol name='_ZNSt7__cxx1112basic_stringIcSt11char_traitsIcESaIcEE13_S_copy_charsEPcPKcS7_' type='func-type' binding='weak-binding' visibility='default-visibility' is-defined='yes'/>
    <elf-symbol name='_ZNSt7__cxx1112basic_stringIcSt11char_traitsIcESaIcEE13_S_copy_charsEPcS5_S5_' type='func-type' binding='weak-binding' visibility='default-visibility' is-defined='yes'/>
    <elf-symbol name='_ZNSt7__cxx1112basic_stringIcSt11char_traitsIcESaIcEE16_M_construct_auxIPKcEEvT_S8_St12__false_type' type='func-type' binding='weak-binding' visibility='default-visibility' is-defined='yes'/>
    <elf-symbol name='_ZNSt7__cxx1112basic_stringIcSt11char_traitsIcESaIcEE16_M_construct_auxIPcEEvT_S7_St12__false_type' type='func-type' binding='weak-binding' visibility='default-visibility' is-defined='yes'/>
    <elf-symbol name='_ZNSt7__cxx1112basic_stringIcSt11char_traitsIcESaIcEE16_M_get_allocatorEv' type='func-type' binding='weak-binding' visibility='default-visibility' is-defined='yes'/>
    <elf-symbol name='_ZNSt7__cxx1112basic_stringIcSt11char_traitsIcESaIcEE17_S_to_string_viewESt17basic_string_viewIcS2_E' type='func-type' binding='weak-binding' visibility='default-visibility' is-defined='yes'/>
    <elf-symbol name='_ZNSt7__cxx1112basic_stringIcSt11char_traitsIcESaIcEE4dataEv' type='func-type' binding='weak-binding' visibility='default-visibility' is-defined='yes'/>
    <elf-symbol name='_ZNSt7__cxx1112basic_stringIcSt11char_traitsIcESaIcEE5clearEv' type='func-type' binding='weak-binding' visibility='default-visibility' is-defined='yes'/>
    <elf-symbol name='_ZNSt7__cxx1112basic_stringIcSt11char_traitsIcESaIcEE6appendEPKc' type='func-type' binding='weak-binding' visibility='default-visibility' is-defined='yes'/>
    <elf-symbol name='_ZNSt7__cxx1112basic_stringIcSt11char_traitsIcESaIcEE6assignEPKc' type='func-type' binding='weak-binding' visibility='default-visibility' is-defined='yes'/>
    <elf-symbol name='_ZNSt7__cxx1112basic_stringIcSt11char_traitsIcESaIcEE6assignERKS4_' type='func-type' binding='weak-binding' visibility='default-visibility' is-defined='yes'/>
    <elf-symbol name='_ZNSt7__cxx1112basic_stringIcSt11char_traitsIcESaIcEE7_M_dataEPc' type='func-type' binding='weak-binding' visibility='default-visibility' is-defined='yes'/>
    <elf-symbol name='_ZNSt7__cxx1112basic_stringIcSt11char_traitsIcESaIcEE7_S_copyEPcPKcm' type='func-type' binding='weak-binding' visibility='default-visibility' is-defined='yes'/>
    <elf-symbol name='_ZNSt7__cxx1112basic_stringIcSt11char_traitsIcESaIcEE7_S_moveEPcPKcm' type='func-type' binding='weak-binding' visibility='default-visibility' is-defined='yes'/>
    <elf-symbol name='_ZNSt7__cxx1112basic_stringIcSt11char_traitsIcESaIcEE9_M_appendEPKcm' type='func-type' binding='weak-binding' visibility='default-visibility' is-defined='yes'/>
    <elf-symbol name='_ZNSt7__cxx1112basic_stringIcSt11char_traitsIcESaIcEE9_M_assignERKS4_' type='func-type' binding='weak-binding' visibility='default-visibility' is-defined='yes'/>
    <elf-symbol name='_ZNSt7__cxx1112basic_stringIcSt11char_traitsIcESaIcEE9_M_createERmm' type='func-type' binding='weak-binding' visibility='default-visibility' is-defined='yes'/>
    <elf-symbol name='_ZNSt7__cxx1112basic_stringIcSt11char_traitsIcESaIcEE9_M_lengthEm' type='func-type' binding='weak-binding' visibility='default-visibility' is-defined='yes'/>
    <elf-symbol name='_ZNSt7__cxx1112basic_stringIcSt11char_traitsIcESaIcEE9_M_mutateEmmPKcm' type='func-type' binding='weak-binding' visibility='default-visibility' is-defined='yes'/>
    <elf-symbol name='_ZNSt7__cxx1112basic_stringIcSt11char_traitsIcESaIcEEC1ENS4_12__sv_wrapperERKS3_' type='func-type' binding='weak-binding' visibility='default-visibility' is-defined='yes'/>
    <elf-symbol name='_ZNSt7__cxx1112basic_stringIcSt11char_traitsIcESaIcEEC1EOS4_' type='func-type' binding='weak-binding' visibility='default-visibility' is-defined='yes'/>
    <elf-symbol name='_ZNSt7__cxx1112basic_stringIcSt11char_traitsIcESaIcEEC1EPKcmRKS3_' type='func-type' binding='weak-binding' visibility='default-visibility' is-defined='yes'/>
    <elf-symbol name='_ZNSt7__cxx1112basic_stringIcSt11char_traitsIcESaIcEEC1ERKS4_' type='func-type' binding='weak-binding' visibility='default-visibility' is-defined='yes'/>
    <elf-symbol name='_ZNSt7__cxx1112basic_stringIcSt11char_traitsIcESaIcEEC1Ev' type='func-type' binding='weak-binding' visibility='default-visibility' is-defined='yes'/>
    <elf-symbol name='_ZNSt7__cxx1112basic_stringIcSt11char_traitsIcESaIcEEC1IS3_EEPKcRKS3_' type='func-type' binding='weak-binding' visibility='default-visibility' is-defined='yes'/>
    <elf-symbol name='_ZNSt7__cxx1112basic_stringIcSt11char_traitsIcESaIcEEC1ISt17basic_string_viewIcS2_EvEERKT_RKS3_' type='func-type' binding='weak-binding' visibility='default-visibility' is-defined='yes'/>
    <elf-symbol name='_ZNSt7__cxx1112basic_stringIcSt11char_traitsIcESaIcEEC2ENS4_12__sv_wrapperERKS3_' type='func-type' binding='weak-binding' visibility='default-visibility' alias='_ZNSt7__cxx1112basic_stringIcSt11char_traitsIcESaIcEEC1ENS4_12__sv_wrapperERKS3_' is-defined='yes'/>
    <elf-symbol name='_ZNSt7__cxx1112basic_stringIcSt11char_traitsIcESaIcEEC2EOS4_' type='func-type' binding='weak-binding' visibility='default-visibility' alias='_ZNSt7__cxx1112basic_stringIcSt11char_traitsIcESaIcEEC1EOS4_' is-defined='yes'/>
    <elf-symbol name='_ZNSt7__cxx1112basic_stringIcSt11char_traitsIcESaIcEEC2EPKcmRKS3_' type='func-type' binding='weak-binding' visibility='default-visibility' alias='_ZNSt7__cxx1112basic_stringIcSt11char_traitsIcESaIcEEC1EPKcmRKS3_' is-defined='yes'/>
    <elf-symbol name='_ZNSt7__cxx1112basic_stringIcSt11char_traitsIcESaIcEEC2ERKS4_' type='func-type' binding='weak-binding' visibility='default-visibility' alias='_ZNSt7__cxx1112basic_stringIcSt11char_traitsIcESaIcEEC1ERKS4_' is-defined='yes'/>
    <elf-symbol name='_ZNSt7__cxx1112basic_stringIcSt11char_traitsIcESaIcEEC2Ev' type='func-type' binding='weak-binding' visibility='default-visibility' alias='_ZNSt7__cxx1112basic_stringIcSt11char_traitsIcESaIcEEC1Ev' is-defined='yes'/>
    <elf-symbol name='_ZNSt7__cxx1112basic_stringIcSt11char_traitsIcESaIcEEC2IS3_EEPKcRKS3_' type='func-type' binding='weak-binding' visibility='default-visibility' alias='_ZNSt7__cxx1112basic_stringIcSt11char_traitsIcESaIcEEC1IS3_EEPKcRKS3_' is-defined='yes'/>
    <elf-symbol name='_ZNSt7__cxx1112basic_stringIcSt11char_traitsIcESaIcEEC2ISt17basic_string_viewIcS2_EvEERKT_RKS3_' type='func-type' binding='weak-binding' visibility='default-visibility' alias='_ZNSt7__cxx1112basic_stringIcSt11char_traitsIcESaIcEEC1ISt17basic_string_viewIcS2_EvEERKT_RKS3_' is-defined='yes'/>
    <elf-symbol name='_ZNSt7__cxx1112basic_stringIcSt11char_traitsIcESaIcEED1Ev' type='func-type' binding='weak-binding' visibility='default-visibility' is-defined='yes'/>
    <elf-symbol name='_ZNSt7__cxx1112basic_stringIcSt11char_traitsIcESaIcEED2Ev' type='func-type' binding='weak-binding' visibility='default-visibility' alias='_ZNSt7__cxx1112basic_stringIcSt11char_traitsIcESaIcEED1Ev' is-defined='yes'/>
    <elf-symbol name='_ZNSt7__cxx1112basic_stringIcSt11char_traitsIcESaIcEEaSEOS4_' type='func-type' binding='weak-binding' visibility='default-visibility' is-defined='yes'/>
    <elf-symbol name='_ZNSt7__cxx1112basic_stringIcSt11char_traitsIcESaIcEEaSEPKc' type='func-type' binding='weak-binding' visibility='default-visibility' is-defined='yes'/>
    <elf-symbol name='_ZNSt7variantIJ17PJ_topic_handle_tNSt7__cxx1112basic_stringIcSt11char_traitsIcESaIcEEEEEC1ILm0EJS0_ES0_vEESt16in_place_index_tIXT_EEDpOT0_' type='func-type' binding='weak-binding' visibility='default-visibility' is-defined='yes'/>
    <elf-symbol name='_ZNSt7variantIJ17PJ_topic_handle_tNSt7__cxx1112basic_stringIcSt11char_traitsIcESaIcEEEEEC1ILm1EJS6_ES6_vEESt16in_place_index_tIXT_EEDpOT0_' type='func-type' binding='weak-binding' visibility='default-visibility' is-defined='yes'/>
    <elf-symbol name='_ZNSt7variantIJ17PJ_topic_handle_tNSt7__cxx1112basic_stringIcSt11char_traitsIcESaIcEEEEEC1IS0_vvS0_vEEOT_' type='func-type' binding='weak-binding' visibility='default-visibility' is-defined='yes'/>
    <elf-symbol name='_ZNSt7variantIJ17PJ_topic_handle_tNSt7__cxx1112basic_stringIcSt11char_traitsIcESaIcEEEEEC1IS6_vvS6_vEEOT_' type='func-type' binding='weak-binding' visibility='default-visibility' is-defined='yes'/>
    <elf-symbol name='_ZNSt7variantIJ17PJ_topic_handle_tNSt7__cxx1112basic_stringIcSt11char_traitsIcESaIcEEEEEC2ILm0EJS0_ES0_vEESt16in_place_index_tIXT_EEDpOT0_' type='func-type' binding='weak-binding' visibility='default-visibility' alias='_ZNSt7variantIJ17PJ_topic_handle_tNSt7__cxx1112basic_stringIcSt11char_traitsIcESaIcEEEEEC1ILm0EJS0_ES0_vEESt16in_place_index_tIXT_EEDpOT0_' is-defined='yes'/>
    <elf-symbol name='_ZNSt7variantIJ17PJ_topic_handle_tNSt7__cxx1112basic_stringIcSt11char_traitsIcESaIcEEEEEC2ILm1EJS6_ES6_vEESt16in_place_index_tIXT_EEDpOT0_' type='func-type' binding='weak-binding' visibility='default-visibility' alias='_ZNSt7variantIJ17PJ_topic_handle_tNSt7__cxx1112basic_stringIcSt11char_traitsIcESaIcEEEEEC1ILm1EJS6_ES6_vEESt16in_place_index_tIXT_EEDpOT0_' is-defined='yes'/>
    <elf-symbol name='_ZNSt7variantIJ17PJ_topic_handle_tNSt7__cxx1112basic_stringIcSt11char_traitsIcESaIcEEEEEC2IS0_vvS0_vEEOT_' type='func-type' binding='weak-binding' visibility='default-visibility' alias='_ZNSt7variantIJ17PJ_topic_handle_tNSt7__cxx1112basic_stringIcSt11char_traitsIcESaIcEEEEEC1IS0_vvS0_vEEOT_' is-defined='yes'/>
    <elf-symbol name='_ZNSt7variantIJ17PJ_topic_handle_tNSt7__cxx1112basic_stringIcSt11char_traitsIcESaIcEEEEEC2IS6_vvS6_vEEOT_' type='func-type' binding='weak-binding' visibility='default-visibility' alias='_ZNSt7variantIJ17PJ_topic_handle_tNSt7__cxx1112basic_stringIcSt11char_traitsIcESaIcEEEEEC1IS6_vvS6_vEEOT_' is-defined='yes'/>
    <elf-symbol name='_ZNSt7variantIJ17PJ_topic_handle_tNSt7__cxx1112basic_stringIcSt11char_traitsIcESaIcEEEEED1Ev' type='func-type' binding='weak-binding' visibility='default-visibility' is-defined='yes'/>
    <elf-symbol name='_ZNSt7variantIJ17PJ_topic_handle_tNSt7__cxx1112basic_stringIcSt11char_traitsIcESaIcEEEEED2Ev' type='func-type' binding='weak-binding' visibility='default-visibility' alias='_ZNSt7variantIJ17PJ_topic_handle_tNSt7__cxx1112basic_stringIcSt11char_traitsIcESaIcEEEEED1Ev' is-defined='yes'/>
    <elf-symbol name='_ZNSt7variantIJ26PJ_parser_binding_handle_tNSt7__cxx1112basic_stringIcSt11char_traitsIcESaIcEEEEEC1ILm0EJS0_ES0_vEESt16in_place_index_tIXT_EEDpOT0_' type='func-type' binding='weak-binding' visibility='default-visibility' is-defined='yes'/>
    <elf-symbol name='_ZNSt7variantIJ26PJ_parser_binding_handle_tNSt7__cxx1112basic_stringIcSt11char_traitsIcESaIcEEEEEC1ILm1EJS6_ES6_vEESt16in_place_index_tIXT_EEDpOT0_' type='func-type' binding='weak-binding' visibility='default-visibility' is-defined='yes'/>
    <elf-symbol name='_ZNSt7variantIJ26PJ_parser_binding_handle_tNSt7__cxx1112basic_stringIcSt11char_traitsIcESaIcEEEEEC1IS0_vvS0_vEEOT_' type='func-type' binding='weak-binding' visibility='default-visibility' is-defined='yes'/>
    <elf-symbol name='_ZNSt7variantIJ26PJ_parser_binding_handle_tNSt7__cxx1112basic_stringIcSt11char_traitsIcESaIcEEEEEC1IS6_vvS6_vEEOT_' type='func-type' binding='weak-binding' visibility='default-visibility' is-defined='yes'/>
    <elf-symbol name='_ZNSt7variantIJ26PJ_parser_binding_handle_tNSt7__cxx1112basic_stringIcSt11char_traitsIcESaIcEEEEEC2ILm0EJS0_ES0_vEESt16in_place_index_tIXT_EEDpOT0_' type='func-type' binding='weak-binding' visibility='default-visibility' alias='_ZNSt7variantIJ26PJ_parser_binding_handle_tNSt7__cxx1112basic_stringIcSt11char_traitsIcESaIcEEEEEC1ILm0EJS0_ES0_vEESt16in_place_index_tIXT_EEDpOT0_' is-defined='yes'/>
    <elf-symbol name='_ZNSt7variantIJ26PJ_parser_binding_handle_tNSt7__cxx1112basic_stringIcSt11char_traitsIcESaIcEEEEEC2ILm1EJS6_ES6_vEESt16in_place_index_tIXT_EEDpOT0_' type='func-type' binding='weak-binding' visibility='default-visibility' alias='_ZNSt7variantIJ26PJ_parser_binding_handle_tNSt7__cxx1112basic_stringIcSt11char_traitsIcESaIcEEEEEC1ILm1EJS6_ES6_vEESt16in_place_index_tIXT_EEDpOT0_' is-defined='yes'/>
    <elf-symbol name='_ZNSt7variantIJ26PJ_parser_binding_handle_tNSt7__cxx1112basic_stringIcSt11char_traitsIcESaIcEEEEEC2IS0_vvS0_vEEOT_' type='func-type' binding='weak-binding' visibility='default-visibility' alias='_ZNSt7variantIJ26PJ_parser_binding_handle_tNSt7__cxx1112basic_stringIcSt11char_traitsIcESaIcEEEEEC1IS0_vvS0_vEEOT_' is-defined='yes'/>
    <elf-symbol name='_ZNSt7variantIJ26PJ_parser_binding_handle_tNSt7__cxx1112basic_stringIcSt11char_traitsIcESaIcEEEEEC2IS6_vvS6_vEEOT_' type='func-type' binding='weak-binding' visibility='default-visibility' alias='_ZNSt7variantIJ26PJ_parser_binding_handle_tNSt7__cxx1112basic_stringIcSt11char_traitsIcESaIcEEEEEC1IS6_vvS6_vEEOT_' is-defined='yes'/>
    <elf-symbol name='_ZNSt7variantIJ26PJ_parser_binding_handle_tNSt7__cxx1112basic_stringIcSt11char_traitsIcESaIcEEEEED1Ev' type='func-type' binding='weak-binding' visibility='default-visibility' is-defined='yes'/>
    <elf-symbol name='_ZNSt7variantIJ26PJ_parser_binding_handle_tNSt7__cxx1112basic_stringIcSt11char_traitsIcESaIcEEEEED2Ev' type='func-type' binding='weak-binding' visibility='default-visibility' alias='_ZNSt7variantIJ26PJ_parser_binding_handle_tNSt7__cxx1112basic_stringIcSt11char_traitsIcESaIcEEEEED1Ev' is-defined='yes'/>
    <elf-symbol name='_ZNSt7variantIJN2PJ25DataSourceRuntimeHostViewENSt7__cxx1112basic_stringIcSt11char_traitsIcESaIcEEEEEC1ILm0EJS1_ES1_vEESt16in_place_index_tIXT_EEDpOT0_' type='func-type' binding='weak-binding' visibility='default-visibility' is-defined='yes'/>
    <elf-symbol name='_ZNSt7variantIJN2PJ25DataSourceRuntimeHostViewENSt7__cxx1112basic_stringIcSt11char_traitsIcESaIcEEEEEC1ILm1EJS7_ES7_vEESt16in_place_index_tIXT_EEDpOT0_' type='func-type' binding='weak-binding' visibility='default-visibility' is-defined='yes'/>
    <elf-symbol name='_ZNSt7variantIJN2PJ25DataSourceRuntimeHostViewENSt7__cxx1112basic_stringIcSt11char_traitsIcESaIcEEEEEC1IS1_vvS1_vEEOT_' type='func-type' binding='weak-binding' visibility='default-visibility' is-defined='yes'/>
    <elf-symbol name='_ZNSt7variantIJN2PJ25DataSourceRuntimeHostViewENSt7__cxx1112basic_stringIcSt11char_traitsIcESaIcEEEEEC1IS7_vvS7_vEEOT_' type='func-type' binding='weak-binding' visibility='default-visibility' is-defined='yes'/>
    <elf-symbol name='_ZNSt7variantIJN2PJ25DataSourceRuntimeHostViewENSt7__cxx1112basic_stringIcSt11char_traitsIcESaIcEEEEEC2ILm0EJS1_ES1_vEESt16in_place_index_tIXT_EEDpOT0_' type='func-type' binding='weak-binding' visibility='default-visibility' alias='_ZNSt7variantIJN2PJ25DataSourceRuntimeHostViewENSt7__cxx1112basic_stringIcSt11char_traitsIcESaIcEEEEEC1ILm0EJS1_ES1_vEESt16in_place_index_tIXT_EEDpOT0_' is-defined='yes'/>
    <elf-symbol name='_ZNSt7variantIJN2PJ25DataSourceRuntimeHostViewENSt7__cxx1112basic_stringIcSt11char_traitsIcESaIcEEEEEC2ILm1EJS7_ES7_vEESt16in_place_index_tIXT_EEDpOT0_' type='func-type' binding='weak-binding' visibility='default-visibility' alias='_ZNSt7variantIJN2PJ25DataSourceRuntimeHostViewENSt7__cxx1112basic_stringIcSt11char_traitsIcESaIcEEEEEC1ILm1EJS7_ES7_vEESt16in_place_index_tIXT_EEDpOT0_' is-defined='yes'/>
    <elf-symbol name='_ZNSt7variantIJN2PJ25DataSourceRuntimeHostViewENSt7__cxx1112basic_stringIcSt11char_traitsIcESaIcEEEEEC2IS1_vvS1_vEEOT_' type='func-type' binding='weak-binding' visibility='default-visibility' alias='_ZNSt7variantIJN2PJ25DataSourceRuntimeHostViewENSt7__cxx1112basic_stringIcSt11char_traitsIcESaIcEEEEEC1IS1_vvS1_vEEOT_' is-defined='yes'/>
    <elf-symbol name='_ZNSt7variantIJN2PJ25DataSourceRuntimeHostViewENSt7__cxx1112basic_stringIcSt11char_traitsIcESaIcEEEEEC2IS7_vvS7_vEEOT_' type='func-type' binding='weak-binding' visibility='default-visibility' alias='_ZNSt7variantIJN2PJ25DataSourceRuntimeHostViewENSt7__cxx1112basic_stringIcSt11char_traitsIcESaIcEEEEEC1IS7_vvS7_vEEOT_' is-defined='yes'/>
    <elf-symbol name='_ZNSt7variantIJN2PJ25DataSourceRuntimeHostViewENSt7__cxx1112basic_stringIcSt11char_traitsIcESaIcEEEEED1Ev' type='func-type' binding='weak-binding' visibility='default-visibility' is-defined='yes'/>
    <elf-symbol name='_ZNSt7variantIJN2PJ25DataSourceRuntimeHostViewENSt7__cxx1112basic_stringIcSt11char_traitsIcESaIcEEEEED2Ev' type='func-type' binding='weak-binding' visibility='default-visibility' alias='_ZNSt7variantIJN2PJ25DataSourceRuntimeHostViewENSt7__cxx1112basic_stringIcSt11char_traitsIcESaIcEEEEED1Ev' is-defined='yes'/>
    <elf-symbol name='_ZNSt7variantIJN2PJ3sdk19SourceWriteHostViewENSt7__cxx1112basic_stringIcSt11char_traitsIcESaIcEEEEEC1ILm0EJS2_ES2_vEESt16in_place_index_tIXT_EEDpOT0_' type='func-type' binding='weak-binding' visibility='default-visibility' is-defined='yes'/>
    <elf-symbol name='_ZNSt7variantIJN2PJ3sdk19SourceWriteHostViewENSt7__cxx1112basic_stringIcSt11char_traitsIcESaIcEEEEEC1ILm1EJS8_ES8_vEESt16in_place_index_tIXT_EEDpOT0_' type='func-type' binding='weak-binding' visibility='default-visibility' is-defined='yes'/>
    <elf-symbol name='_ZNSt7variantIJN2PJ3sdk19SourceWriteHostViewENSt7__cxx1112basic_stringIcSt11char_traitsIcESaIcEEEEEC1IS2_vvS2_vEEOT_' type='func-type' binding='weak-binding' visibility='default-visibility' is-defined='yes'/>
    <elf-symbol name='_ZNSt7variantIJN2PJ3sdk19SourceWriteHostViewENSt7__cxx1112basic_stringIcSt11char_traitsIcESaIcEEEEEC1IS8_vvS8_vEEOT_' type='func-type' binding='weak-binding' visibility='default-visibility' is-defined='yes'/>
    <elf-symbol name='_ZNSt7variantIJN2PJ3sdk19SourceWriteHostViewENSt7__cxx1112basic_stringIcSt11char_traitsIcESaIcEEEEEC2ILm0EJS2_ES2_vEESt16in_place_index_tIXT_EEDpOT0_' type='func-type' binding='weak-binding' visibility='default-visibility' alias='_ZNSt7variantIJN2PJ3sdk19SourceWriteHostViewENSt7__cxx1112basic_stringIcSt11char_traitsIcESaIcEEEEEC1ILm0EJS2_ES2_vEESt16in_place_index_tIXT_EEDpOT0_' is-defined='yes'/>
    <elf-symbol name='_ZNSt7variantIJN2PJ3sdk19SourceWriteHostViewENSt7__cxx1112basic_stringIcSt11char_traitsIcESaIcEEEEEC2ILm1EJS8_ES8_vEESt16in_place_index_tIXT_EEDpOT0_' type='func-type' binding='weak-binding' visibility='default-visibility' alias='_ZNSt7variantIJN2PJ3sdk19SourceWriteHostViewENSt7__cxx1112basic_stringIcSt11char_traitsIcESaIcEEEEEC1ILm1EJS8_ES8_vEESt16in_place_index_tIXT_EEDpOT0_' is-defined='yes'/>
    <elf-symbol name='_ZNSt7variantIJN2PJ3sdk19SourceWriteHostViewENSt7__cxx1112basic_stringIcSt11char_traitsIcESaIcEEEEEC2IS2_vvS2_vEEOT_' type='func-type' binding='weak-binding' visibility='default-visibility' alias='_ZNSt7variantIJN2PJ3sdk19SourceWriteHostViewENSt7__cxx1112basic_stringIcSt11char_traitsIcESaIcEEEEEC1IS2_vvS2_vEEOT_' is-defined='yes'/>
    <elf-symbol name='_ZNSt7variantIJN2PJ3sdk19SourceWriteHostViewENSt7__cxx1112basic_stringIcSt11char_traitsIcESaIcEEEEEC2IS8_vvS8_vEEOT_' type='func-type' binding='weak-binding' visibility='default-visibility' alias='_ZNSt7variantIJN2PJ3sdk19SourceWriteHostViewENSt7__cxx1112basic_stringIcSt11char_traitsIcESaIcEEEEEC1IS8_vvS8_vEEOT_' is-defined='yes'/>
    <elf-symbol name='_ZNSt7variantIJN2PJ3sdk19SourceWriteHostViewENSt7__cxx1112basic_stringIcSt11char_traitsIcESaIcEEEEED1Ev' type='func-type' binding='weak-binding' visibility='default-visibility' is-defined='yes'/>
    <elf-symbol name='_ZNSt7variantIJN2PJ3sdk19SourceWriteHostViewENSt7__cxx1112basic_stringIcSt11char_traitsIcESaIcEEEEED2Ev' type='func-type' binding='weak-binding' visibility='default-visibility' alias='_ZNSt7variantIJN2PJ3sdk19SourceWriteHostViewENSt7__cxx1112basic_stringIcSt11char_traitsIcESaIcEEEEED1Ev' is-defined='yes'/>
    <elf-symbol name='_ZNSt8__detail16__extent_storageILm18446744073709551615EEC1Em' type='func-type' binding='weak-binding' visibility='default-visibility' is-defined='yes'/>
    <elf-symbol name='_ZNSt8__detail16__extent_storageILm18446744073709551615EEC2Em' type='func-type' binding='weak-binding' visibility='default-visibility' alias='_ZNSt8__detail16__extent_storageILm18446744073709551615EEC1Em' is-defined='yes'/>
    <elf-symbol name='_ZNSt8__detail9__variant13_Variant_baseIJ17PJ_topic_handle_tNSt7__cxx1112basic_stringIcSt11char_traitsIcESaIcEEEEEC1ILm0EJS2_EEESt16in_place_index_tIXT_EEDpOT0_' type='func-type' binding='weak-binding' visibility='default-visibility' is-defined='yes'/>
    <elf-symbol name='_ZNSt8__detail9__variant13_Variant_baseIJ17PJ_topic_handle_tNSt7__cxx1112basic_stringIcSt11char_traitsIcESaIcEEEEEC1ILm1EJS8_EEESt16in_place_index_tIXT_EEDpOT0_' type='func-type' binding='weak-binding' visibility='default-visibility' is-defined='yes'/>
    <elf-symbol name='_ZNSt8__detail9__variant13_Variant_baseIJ17PJ_topic_handle_tNSt7__cxx1112basic_stringIcSt11char_traitsIcESaIcEEEEEC2ILm0EJS2_EEESt16in_place_index_tIXT_EEDpOT0_' type='func-type' binding='weak-binding' visibility='default-visibility' alias='_ZNSt8__detail9__variant13_Variant_baseIJ17PJ_topic_handle_tNSt7__cxx1112basic_stringIcSt11char_traitsIcESaIcEEEEEC1ILm0EJS2_EEESt16in_place_index_tIXT_EEDpOT0_' is-defined='yes'/>
    <elf-symbol name='_ZNSt8__detail9__variant13_Variant_baseIJ17PJ_topic_handle_tNSt7__cxx1112basic_stringIcSt11char_traitsIcESaIcEEEEEC2ILm1EJS8_EEESt16in_place_index_tIXT_EEDpOT0_' type='func-type' binding='weak-binding' visibility='default-visibility' alias='_ZNSt8__detail9__variant13_Variant_baseIJ17PJ_topic_handle_tNSt7__cxx1112basic_stringIcSt11char_traitsIcESaIcEEEEEC1ILm1EJS8_EEESt16in_place_index_tIXT_EEDpOT0_' is-defined='yes'/>
    <elf-symbol name='_ZNSt8__detail9__variant13_Variant_baseIJ17PJ_topic_handle_tNSt7__cxx1112basic_stringIcSt11char_traitsIcESaIcEEEEED1Ev' type='func-type' binding='weak-binding' visibility='default-visibility' alias='_ZNSt8__detail9__variant13_Variant_baseIJ17PJ_topic_handle_tNSt7__cxx1112basic_stringIcSt11char_traitsIcESaIcEEEEED2Ev' is-defined='yes'/>
    <elf-symbol name='_ZNSt8__detail9__variant13_Variant_baseIJ17PJ_topic_handle_tNSt7__cxx1112basic_stringIcSt11char_traitsIcESaIcEEEEED2Ev' type='func-type' binding='weak-binding' visibility='default-visibility' is-defined='yes'/>
    <elf-symbol name='_ZNSt8__detail9__variant13_Variant_baseIJ26PJ_parser_binding_handle_tNSt7__cxx1112basic_stringIcSt11char_traitsIcESaIcEEEEEC1ILm0EJS2_EEESt16in_place_index_tIXT_EEDpOT0_' type='func-type' binding='weak-binding' visibility='default-visibility' is-defined='yes'/>
    <elf-symbol name='_ZNSt8__detail9__variant13_Variant_baseIJ26PJ_parser_binding_handle_tNSt7__cxx1112basic_stringIcSt11char_traitsIcESaIcEEEEEC1ILm1EJS8_EEESt16in_place_index_tIXT_EEDpOT0_' type='func-type' binding='weak-binding' visibility='default-visibility' is-defined='yes'/>
    <elf-symbol name='_ZNSt8__detail9__variant13_Variant_baseIJ26PJ_parser_binding_handle_tNSt7__cxx1112basic_stringIcSt11char_traitsIcESaIcEEEEEC2ILm0EJS2_EEESt16in_place_index_tIXT_EEDpOT0_' type='func-type' binding='weak-binding' visibility='default-visibility' alias='_ZNSt8__detail9__variant13_Variant_baseIJ26PJ_parser_binding_handle_tNSt7__cxx1112basic_stringIcSt11char_traitsIcESaIcEEEEEC1ILm0EJS2_EEESt16in_place_index_tIXT_EEDpOT0_' is-defined='yes'/>
    <elf-symbol name='_ZNSt8__detail9__variant13_Variant_baseIJ26PJ_parser_binding_handle_tNSt7__cxx1112basic_stringIcSt11char_traitsIcESaIcEEEEEC2ILm1EJS8_EEESt16in_place_index_tIXT_EEDpOT0_' type='func-type' binding='weak-binding' visibility='default-visibility' alias='_ZNSt8__detail9__variant13_Variant_baseIJ26PJ_parser_binding_handle_tNSt7__cxx1112basic_stringIcSt11char_traitsIcESaIcEEEEEC1ILm1EJS8_EEESt16in_place_index_tIXT_EEDpOT0_' is-defined='yes'/>
    <elf-symbol name='_ZNSt8__detail9__variant13_Variant_baseIJ26PJ_parser_binding_handle_tNSt7__cxx1112basic_stringIcSt11char_traitsIcESaIcEEEEED1Ev' type='func-type' binding='weak-binding' visibility='default-visibility' alias='_ZNSt8__detail9__variant13_Variant_baseIJ26PJ_parser_binding_handle_tNSt7__cxx1112basic_stringIcSt11char_traitsIcESaIcEEEEED2Ev' is-defined='yes'/>
    <elf-symbol name='_ZNSt8__detail9__variant13_Variant_baseIJ26PJ_parser_binding_handle_tNSt7__cxx1112basic_stringIcSt11char_traitsIcESaIcEEEEED2Ev' type='func-type' binding='weak-binding' visibility='default-visibility' is-defined='yes'/>
    <elf-symbol name='_ZNSt8__detail9__variant13_Variant_baseIJN2PJ25DataSourceRuntimeHostViewENSt7__cxx1112basic_stringIcSt11char_traitsIcESaIcEEEEEC1ILm0EJS3_EEESt16in_place_index_tIXT_EEDpOT0_' type='func-type' binding='weak-binding' visibility='default-visibility' is-defined='yes'/>
    <elf-symbol name='_ZNSt8__detail9__variant13_Variant_baseIJN2PJ25DataSourceRuntimeHostViewENSt7__cxx1112basic_stringIcSt11char_traitsIcESaIcEEEEEC1ILm1EJS9_EEESt16in_place_index_tIXT_EEDpOT0_' type='func-type' binding='weak-binding' visibility='default-visibility' is-defined='yes'/>
    <elf-symbol name='_ZNSt8__detail9__variant13_Variant_baseIJN2PJ25DataSourceRuntimeHostViewENSt7__cxx1112basic_stringIcSt11char_traitsIcESaIcEEEEEC2ILm0EJS3_EEESt16in_place_index_tIXT_EEDpOT0_' type='func-type' binding='weak-binding' visibility='default-visibility' alias='_ZNSt8__detail9__variant13_Variant_baseIJN2PJ25DataSourceRuntimeHostViewENSt7__cxx1112basic_stringIcSt11char_traitsIcESaIcEEEEEC1ILm0EJS3_EEESt16in_place_index_tIXT_EEDpOT0_' is-defined='yes'/>
    <elf-symbol name='_ZNSt8__detail9__variant13_Variant_baseIJN2PJ25DataSourceRuntimeHostViewENSt7__cxx1112basic_stringIcSt11char_traitsIcESaIcEEEEEC2ILm1EJS9_EEESt16in_place_index_tIXT_EEDpOT0_' type='func-type' binding='weak-binding' visibility='default-visibility' alias='_ZNSt8__detail9__variant13_Variant_baseIJN2PJ25DataSourceRuntimeHostViewENSt7__cxx1112basic_stringIcSt11char_traitsIcESaIcEEEEEC1ILm1EJS9_EEESt16in_place_index_tIXT_EEDpOT0_' is-defined='yes'/>
    <elf-symbol name='_ZNSt8__detail9__variant13_Variant_baseIJN2PJ25DataSourceRuntimeHostViewENSt7__cxx1112basic_stringIcSt11char_traitsIcESaIcEEEEED1Ev' type='func-type' binding='weak-binding' visibility='default-visibility' alias='_ZNSt8__detail9__variant13_Variant_baseIJN2PJ25DataSourceRuntimeHostViewENSt7__cxx1112basic_stringIcSt11char_traitsIcESaIcEEEEED2Ev' is-defined='yes'/>
    <elf-symbol name='_ZNSt8__detail9__variant13_Variant_baseIJN2PJ25DataSourceRuntimeHostViewENSt7__cxx1112basic_stringIcSt11char_traitsIcESaIcEEEEED2Ev' type='func-type' binding='weak-binding' visibility='default-visibility' is-defined='yes'/>
    <elf-symbol name='_ZNSt8__detail9__variant13_Variant_baseIJN2PJ3sdk19SourceWriteHostViewENSt7__cxx1112basic_stringIcSt11char_traitsIcESaIcEEEEEC1ILm0EJS4_EEESt16in_place_index_tIXT_EEDpOT0_' type='func-type' binding='weak-binding' visibility='default-visibility' is-defined='yes'/>
    <elf-symbol name='_ZNSt8__detail9__variant13_Variant_baseIJN2PJ3sdk19SourceWriteHostViewENSt7__cxx1112basic_stringIcSt11char_traitsIcESaIcEEEEEC1ILm1EJSA_EEESt16in_place_index_tIXT_EEDpOT0_' type='func-type' binding='weak-binding' visibility='default-visibility' is-defined='yes'/>
    <elf-symbol name='_ZNSt8__detail9__variant13_Variant_baseIJN2PJ3sdk19SourceWriteHostViewENSt7__cxx1112basic_stringIcSt11char_traitsIcESaIcEEEEEC2ILm0EJS4_EEESt16in_place_index_tIXT_EEDpOT0_' type='func-type' binding='weak-binding' visibility='default-visibility' alias='_ZNSt8__detail9__variant13_Variant_baseIJN2PJ3sdk19SourceWriteHostViewENSt7__cxx1112basic_stringIcSt11char_traitsIcESaIcEEEEEC1ILm0EJS4_EEESt16in_place_index_tIXT_EEDpOT0_' is-defined='yes'/>
    <elf-symbol name='_ZNSt8__detail9__variant13_Variant_baseIJN2PJ3sdk19SourceWriteHostViewENSt7__cxx1112basic_stringIcSt11char_traitsIcESaIcEEEEEC2ILm1EJSA_EEESt16in_place_index_tIXT_EEDpOT0_' type='func-type' binding='weak-binding' visibility='default-visibility' alias='_ZNSt8__detail9__variant13_Variant_baseIJN2PJ3sdk19SourceWriteHostViewENSt7__cxx1112basic_stringIcSt11char_traitsIcESaIcEEEEEC1ILm1EJSA_EEESt16in_place_index_tIXT_EEDpOT0_' is-defined='yes'/>
    <elf-symbol name='_ZNSt8__detail9__variant13_Variant_baseIJN2PJ3sdk19SourceWriteHostViewENSt7__cxx1112basic_stringIcSt11char_traitsIcESaIcEEEEED1Ev' type='func-type' binding='weak-binding' visibility='default-visibility' alias='_ZNSt8__detail9__variant13_Variant_baseIJN2PJ3sdk19SourceWriteHostViewENSt7__cxx1112basic_stringIcSt11char_traitsIcESaIcEEEEED2Ev' is-defined='yes'/>
    <elf-symbol name='_ZNSt8__detail9__variant13_Variant_baseIJN2PJ3sdk19SourceWriteHostViewENSt7__cxx1112basic_stringIcSt11char_traitsIcESaIcEEEEED2Ev' type='func-type' binding='weak-binding' visibility='default-visibility' is-defined='yes'/>
    <elf-symbol name='_ZNSt8__detail9__variant14_UninitializedI17PJ_topic_handle_tLb1EEC1IJS2_EEESt16in_place_index_tILm0EEDpOT_' type='func-type' binding='weak-binding' visibility='default-visibility' is-defined='yes'/>
    <elf-symbol name='_ZNSt8__detail9__variant14_UninitializedI17PJ_topic_handle_tLb1EEC2IJS2_EEESt16in_place_index_tILm0EEDpOT_' type='func-type' binding='weak-binding' visibility='default-visibility' alias='_ZNSt8__detail9__variant14_UninitializedI17PJ_topic_handle_tLb1EEC1IJS2_EEESt16in_place_index_tILm0EEDpOT_' is-defined='yes'/>
    <elf-symbol name='_ZNSt8__detail9__variant14_UninitializedI26PJ_parser_binding_handle_tLb1EEC1IJS2_EEESt16in_place_index_tILm0EEDpOT_' type='func-type' binding='weak-binding' visibility='default-visibility' is-defined='yes'/>
    <elf-symbol name='_ZNSt8__detail9__variant14_UninitializedI26PJ_parser_binding_handle_tLb1EEC2IJS2_EEESt16in_place_index_tILm0EEDpOT_' type='func-type' binding='weak-binding' visibility='default-visibility' alias='_ZNSt8__detail9__variant14_UninitializedI26PJ_parser_binding_handle_tLb1EEC1IJS2_EEESt16in_place_index_tILm0EEDpOT_' is-defined='yes'/>
    <elf-symbol name='_ZNSt8__detail9__variant14_UninitializedIN2PJ25DataSourceRuntimeHostViewELb1EEC1IJS3_EEESt16in_place_index_tILm0EEDpOT_' type='func-type' binding='weak-binding' visibility='default-visibility' is-defined='yes'/>
    <elf-symbol name='_ZNSt8__detail9__variant14_UninitializedIN2PJ25DataSourceRuntimeHostViewELb1EEC2IJS3_EEESt16in_place_index_tILm0EEDpOT_' type='func-type' binding='weak-binding' visibility='default-visibility' alias='_ZNSt8__detail9__variant14_UninitializedIN2PJ25DataSourceRuntimeHostViewELb1EEC1IJS3_EEESt16in_place_index_tILm0EEDpOT_' is-defined='yes'/>
    <elf-symbol name='_ZNSt8__detail9__variant14_UninitializedIN2PJ3sdk19SourceWriteHostViewELb1EEC1IJS4_EEESt16in_place_index_tILm0EEDpOT_' type='func-type' binding='weak-binding' visibility='default-visibility' is-defined='yes'/>
    <elf-symbol name='_ZNSt8__detail9__variant14_UninitializedIN2PJ3sdk19SourceWriteHostViewELb1EEC2IJS4_EEESt16in_place_index_tILm0EEDpOT_' type='func-type' binding='weak-binding' visibility='default-visibility' alias='_ZNSt8__detail9__variant14_UninitializedIN2PJ3sdk19SourceWriteHostViewELb1EEC1IJS4_EEESt16in_place_index_tILm0EEDpOT_' is-defined='yes'/>
    <elf-symbol name='_ZNSt8__detail9__variant14_UninitializedINSt7__cxx1112basic_stringIcSt11char_traitsIcESaIcEEELb0EEC1IJS7_EEESt16in_place_index_tILm0EEDpOT_' type='func-type' binding='weak-binding' visibility='default-visibility' is-defined='yes'/>
    <elf-symbol name='_ZNSt8__detail9__variant14_UninitializedINSt7__cxx1112basic_stringIcSt11char_traitsIcESaIcEEELb0EEC2IJS7_EEESt16in_place_index_tILm0EEDpOT_' type='func-type' binding='weak-binding' visibility='default-visibility' alias='_ZNSt8__detail9__variant14_UninitializedINSt7__cxx1112basic_stringIcSt11char_traitsIcESaIcEEELb0EEC1IJS7_EEESt16in_place_index_tILm0EEDpOT_' is-defined='yes'/>
    <elf-symbol name='_ZNSt8__detail9__variant15_Copy_ctor_baseILb0EJ17PJ_topic_handle_tNSt7__cxx1112basic_stringIcSt11char_traitsIcESaIcEEEEECI1NS0_16_Variant_storageILb0EJS2_S8_EEEILm0EJS2_EEESt16in_place_index_tIXT_EEDpOT0_' type='func-type' binding='weak-binding' visibility='default-visibility' alias='_ZNSt8__detail9__variant15_Copy_ctor_baseILb0EJ17PJ_topic_handle_tNSt7__cxx1112basic_stringIcSt11char_traitsIcESaIcEEEEECI2NS0_16_Variant_storageILb0EJS2_S8_EEEILm0EJS2_EEESt16in_place_index_tIXT_EEDpOT0_' is-defined='yes'/>
    <elf-symbol name='_ZNSt8__detail9__variant15_Copy_ctor_baseILb0EJ17PJ_topic_handle_tNSt7__cxx1112basic_stringIcSt11char_traitsIcESaIcEEEEECI1NS0_16_Variant_storageILb0EJS2_S8_EEEILm1EJS8_EEESt16in_place_index_tIXT_EEDpOT0_' type='func-type' binding='weak-binding' visibility='default-visibility' alias='_ZNSt8__detail9__variant15_Copy_ctor_baseILb0EJ17PJ_topic_handle_tNSt7__cxx1112basic_stringIcSt11char_traitsIcESaIcEEEEECI2NS0_16_Variant_storageILb0EJS2_S8_EEEILm1EJS8_EEESt16in_place_index_tIXT_EEDpOT0_' is-defined='yes'/>
    <elf-symbol name='_ZNSt8__detail9__variant15_Copy_ctor_baseILb0EJ17PJ_topic_handle_tNSt7__cxx1112basic_stringIcSt11char_traitsIcESaIcEEEEECI2NS0_16_Variant_storageILb0EJS2_S8_EEEILm0EJS2_EEESt16in_place_index_tIXT_EEDpOT0_' type='func-type' binding='weak-binding' visibility='default-visibility' is-defined='yes'/>
    <elf-symbol name='_ZNSt8__detail9__variant15_Copy_ctor_baseILb0EJ17PJ_topic_handle_tNSt7__cxx1112basic_stringIcSt11char_traitsIcESaIcEEEEECI2NS0_16_Variant_storageILb0EJS2_S8_EEEILm1EJS8_EEESt16in_place_index_tIXT_EEDpOT0_' type='func-type' binding='weak-binding' visibility='default-visibility' is-defined='yes'/>
    <elf-symbol name='_ZNSt8__detail9__variant15_Copy_ctor_baseILb0EJ17PJ_topic_handle_tNSt7__cxx1112basic_stringIcSt11char_traitsIcESaIcEEEEED1Ev' type='func-type' binding='weak-binding' visibility='default-visibility' alias='_ZNSt8__detail9__variant15_Copy_ctor_baseILb0EJ17PJ_topic_handle_tNSt7__cxx1112basic_stringIcSt11char_traitsIcESaIcEEEEED2Ev' is-defined='yes'/>
    <elf-symbol name='_ZNSt8__detail9__variant15_Copy_ctor_baseILb0EJ17PJ_topic_handle_tNSt7__cxx1112basic_stringIcSt11char_traitsIcESaIcEEEEED2Ev' type='func-type' binding='weak-binding' visibility='default-visibility' is-defined='yes'/>
    <elf-symbol name='_ZNSt8__detail9__variant15_Copy_ctor_baseILb0EJ26PJ_parser_binding_handle_tNSt7__cxx1112basic_stringIcSt11char_traitsIcESaIcEEEEECI1NS0_16_Variant_storageILb0EJS2_S8_EEEILm0EJS2_EEESt16in_place_index_tIXT_EEDpOT0_' type='func-type' binding='weak-binding' visibility='default-visibility' is-defined='yes'/>
    <elf-symbol name='_ZNSt8__detail9__variant15_Copy_ctor_baseILb0EJ26PJ_parser_binding_handle_tNSt7__cxx1112basic_stringIcSt11char_traitsIcESaIcEEEEECI1NS0_16_Variant_storageILb0EJS2_S8_EEEILm1EJS8_EEESt16in_place_index_tIXT_EEDpOT0_' type='func-type' binding='weak-binding' visibility='default-visibility' is-defined='yes'/>
    <elf-symbol name='_ZNSt8__detail9__variant15_Copy_ctor_baseILb0EJ26PJ_parser_binding_handle_tNSt7__cxx1112basic_stringIcSt11char_traitsIcESaIcEEEEECI2NS0_16_Variant_storageILb0EJS2_S8_EEEILm0EJS2_EEESt16in_place_index_tIXT_EEDpOT0_' type='func-type' binding='weak-binding' visibility='default-visibility' alias='_ZNSt8__detail9__variant15_Copy_ctor_baseILb0EJ26PJ_parser_binding_handle_tNSt7__cxx1112basic_stringIcSt11char_traitsIcESaIcEEEEECI1NS0_16_Variant_storageILb0EJS2_S8_EEEILm0EJS2_EEESt16in_place_index_tIXT_EEDpOT0_' is-defined='yes'/>
    <elf-symbol name='_ZNSt8__detail9__variant15_Copy_ctor_baseILb0EJ26PJ_parser_binding_handle_tNSt7__cxx1112basic_stringIcSt11char_traitsIcESaIcEEEEECI2NS0_16_Variant_storageILb0EJS2_S8_EEEILm1EJS8_EEESt16in_place_index_tIXT_EEDpOT0_' type='func-type' binding='weak-binding' visibility='default-visibility' alias='_ZNSt8__detail9__variant15_Copy_ctor_baseILb0EJ26PJ_parser_binding_handle_tNSt7__cxx1112basic_stringIcSt11char_traitsIcESaIcEEEEECI1NS0_16_Variant_storageILb0EJS2_S8_EEEILm1EJS8_EEESt16in_place_index_tIXT_EEDpOT0_' is-defined='yes'/>
    <elf-symbol name='_ZNSt8__detail9__variant15_Copy_ctor_baseILb0EJ26PJ_parser_binding_handle_tNSt7__cxx1112basic_stringIcSt11char_traitsIcESaIcEEEEED1Ev' type='func-type' binding='weak-binding' visibility='default-visibility' alias='_ZNSt8__detail9__variant15_Copy_ctor_baseILb0EJ26PJ_parser_binding_handle_tNSt7__cxx1112basic_stringIcSt11char_traitsIcESaIcEEEEED2Ev' is-defined='yes'/>
    <elf-symbol name='_ZNSt8__detail9__variant15_Copy_ctor_baseILb0EJ26PJ_parser_binding_handle_tNSt7__cxx1112basic_stringIcSt11char_traitsIcESaIcEEEEED2Ev' type='func-type' binding='weak-binding' visibility='default-visibility' is-defined='yes'/>
    <elf-symbol name='_ZNSt8__detail9__variant15_Copy_ctor_baseILb0EJN2PJ25DataSourceRuntimeHostViewENSt7__cxx1112basic_stringIcSt11char_traitsIcESaIcEEEEECI1NS0_16_Variant_storageILb0EJS3_S9_EEEILm0EJS3_EEESt16in_place_index_tIXT_EEDpOT0_' type='func-type' binding='weak-binding' visibility='default-visibility' alias='_ZNSt8__detail9__variant15_Copy_ctor_baseILb0EJN2PJ25DataSourceRuntimeHostViewENSt7__cxx1112basic_stringIcSt11char_traitsIcESaIcEEEEECI2NS0_16_Variant_storageILb0EJS3_S9_EEEILm0EJS3_EEESt16in_place_index_tIXT_EEDpOT0_' is-defined='yes'/>
    <elf-symbol name='_ZNSt8__detail9__variant15_Copy_ctor_baseILb0EJN2PJ25DataSourceRuntimeHostViewENSt7__cxx1112basic_stringIcSt11char_traitsIcESaIcEEEEECI1NS0_16_Variant_storageILb0EJS3_S9_EEEILm1EJS9_EEESt16in_place_index_tIXT_EEDpOT0_' type='func-type' binding='weak-binding' visibility='default-visibility' alias='_ZNSt8__detail9__variant15_Copy_ctor_baseILb0EJN2PJ25DataSourceRuntimeHostViewENSt7__cxx1112basic_stringIcSt11char_traitsIcESaIcEEEEECI2NS0_16_Variant_storageILb0EJS3_S9_EEEILm1EJS9_EEESt16in_place_index_tIXT_EEDpOT0_' is-defined='yes'/>
    <elf-symbol name='_ZNSt8__detail9__variant15_Copy_ctor_baseILb0EJN2PJ25DataSourceRuntimeHostViewENSt7__cxx1112basic_stringIcSt11char_traitsIcESaIcEEEEECI2NS0_16_Variant_storageILb0EJS3_S9_EEEILm0EJS3_EEESt16in_place_index_tIXT_EEDpOT0_' type='func-type' binding='weak-binding' visibility='default-visibility' is-defined='yes'/>
    <elf-symbol name='_ZNSt8__detail9__variant15_Copy_ctor_baseILb0EJN2PJ25DataSourceRuntimeHostViewENSt7__cxx1112basic_stringIcSt11char_traitsIcESaIcEEEEECI2NS0_16_Variant_storageILb0EJS3_S9_EEEILm1EJS9_EEESt16in_place_index_tIXT_EEDpOT0_' type='func-type' binding='weak-binding' visibility='default-visibility' is-defined='yes'/>
    <elf-symbol name='_ZNSt8__detail9__variant15_Copy_ctor_baseILb0EJN2PJ25DataSourceRuntimeHostViewENSt7__cxx1112basic_stringIcSt11char_traitsIcESaIcEEEEED1Ev' type='func-type' binding='weak-binding' visibility='default-visibility' alias='_ZNSt8__detail9__variant15_Copy_ctor_baseILb0EJN2PJ25DataSourceRuntimeHostViewENSt7__cxx1112basic_stringIcSt11char_traitsIcESaIcEEEEED2Ev' is-defined='yes'/>
    <elf-symbol name='_ZNSt8__detail9__variant15_Copy_ctor_baseILb0EJN2PJ25DataSourceRuntimeHostViewENSt7__cxx1112basic_stringIcSt11char_traitsIcESaIcEEEEED2Ev' type='func-type' binding='weak-binding' visibility='default-visibility' is-defined='yes'/>
    <elf-symbol name='_ZNSt8__detail9__variant15_Copy_ctor_baseILb0EJN2PJ3sdk19SourceWriteHostViewENSt7__cxx1112basic_stringIcSt11char_traitsIcESaIcEEEEECI1NS0_16_Variant_storageILb0EJS4_SA_EEEILm0EJS4_EEESt16in_place_index_tIXT_EEDpOT0_' type='func-type' binding='weak-binding' visibility='default-visibility' is-defined='yes'/>
    <elf-symbol name='_ZNSt8__detail9__variant15_Copy_ctor_baseILb0EJN2PJ3sdk19SourceWriteHostViewENSt7__cxx1112basic_stringIcSt11char_traitsIcESaIcEEEEECI1NS0_16_Variant_storageILb0EJS4_SA_EEEILm1EJSA_EEESt16in_place_index_tIXT_EEDpOT0_' type='func-type' binding='weak-binding' visibility='default-visibility' alias='_ZNSt8__detail9__variant15_Copy_ctor_baseILb0EJN2PJ3sdk19SourceWriteHostViewENSt7__cxx1112basic_stringIcSt11char_traitsIcESaIcEEEEECI2NS0_16_Variant_storageILb0EJS4_SA_EEEILm1EJSA_EEESt16in_place_index_tIXT_EEDpOT0_' is-defined='yes'/>
    <elf-symbol name='_ZNSt8__detail9__variant15_Copy_ctor_baseILb0EJN2PJ3sdk19SourceWriteHostViewENSt7__cxx1112basic_stringIcSt11char_traitsIcESaIcEEEEECI2NS0_16_Variant_storageILb0EJS4_SA_EEEILm0EJS4_EEESt16in_place_index_tIXT_EEDpOT0_' type='func-type' binding='weak-binding' visibility='default-visibility' alias='_ZNSt8__detail9__variant15_Copy_ctor_baseILb0EJN2PJ3sdk19SourceWriteHostViewENSt7__cxx1112basic_stringIcSt11char_traitsIcESaIcEEEEECI1NS0_16_Variant_storageILb0EJS4_SA_EEEILm0EJS4_EEESt16in_place_index_tIXT_EEDpOT0_' is-defined='yes'/>
    <elf-symbol name='_ZNSt8__detail9__variant15_Copy_ctor_baseILb0EJN2PJ3sdk19SourceWriteHostViewENSt7__cxx1112basic_stringIcSt11char_traitsIcESaIcEEEEECI2NS0_16_Variant_storageILb0EJS4_SA_EEEILm1EJSA_EEESt16in_place_index_tIXT_EEDpOT0_' type='func-type' binding='weak-binding' visibility='default-visibility' is-defined='yes'/>
    <elf-symbol name='_ZNSt8__detail9__variant15_Copy_ctor_baseILb0EJN2PJ3sdk19SourceWriteHostViewENSt7__cxx1112basic_stringIcSt11char_traitsIcESaIcEEEEED1Ev' type='func-type' binding='weak-binding' visibility='default-visibility' alias='_ZNSt8__detail9__variant15_Copy_ctor_baseILb0EJN2PJ3sdk19SourceWriteHostViewENSt7__cxx1112basic_stringIcSt11char_traitsIcESaIcEEEEED2Ev' is-defined='yes'/>
    <elf-symbol name='_ZNSt8__detail9__variant15_Copy_ctor_baseILb0EJN2PJ3sdk19SourceWriteHostViewENSt7__cxx1112basic_stringIcSt11char_traitsIcESaIcEEEEED2Ev' type='func-type' binding='weak-binding' visibility='default-visibility' is-defined='yes'/>
    <elf-symbol name='_ZNSt8__detail9__variant15_Move_ctor_baseILb0EJ17PJ_topic_handle_tNSt7__cxx1112basic_stringIcSt11char_traitsIcESaIcEEEEECI1NS0_16_Variant_storageILb0EJS2_S8_EEEILm0EJS2_EEESt16in_place_index_tIXT_EEDpOT0_' type='func-type' binding='weak-binding' visibility='default-visibility' alias='_ZNSt8__detail9__variant15_Move_ctor_baseILb0EJ17PJ_topic_handle_tNSt7__cxx1112basic_stringIcSt11char_traitsIcESaIcEEEEECI2NS0_16_Variant_storageILb0EJS2_S8_EEEILm0EJS2_EEESt16in_place_index_tIXT_EEDpOT0_' is-defined='yes'/>
    <elf-symbol name='_ZNSt8__detail9__variant15_Move_ctor_baseILb0EJ17PJ_topic_handle_tNSt7__cxx1112basic_stringIcSt11char_traitsIcESaIcEEEEECI1NS0_16_Variant_storageILb0EJS2_S8_EEEILm1EJS8_EEESt16in_place_index_tIXT_EEDpOT0_' type='func-type' binding='weak-binding' visibility='default-visibility' alias='_ZNSt8__detail9__variant15_Move_ctor_baseILb0EJ17PJ_topic_handle_tNSt7__cxx1112basic_stringIcSt11char_traitsIcESaIcEEEEECI2NS0_16_Variant_storageILb0EJS2_S8_EEEILm1EJS8_EEESt16in_place_index_tIXT_EEDpOT0_' is-defined='yes'/>
    <elf-symbol name='_ZNSt8__detail9__variant15_Move_ctor_baseILb0EJ17PJ_topic_handle_tNSt7__cxx1112basic_stringIcSt11char_traitsIcESaIcEEEEECI2NS0_16_Variant_storageILb0EJS2_S8_EEEILm0EJS2_EEESt16in_place_index_tIXT_EEDpOT0_' type='func-type' binding='weak-binding' visibility='default-visibility' is-defined='yes'/>
    <elf-symbol name='_ZNSt8__detail9__variant15_Move_ctor_baseILb0EJ17PJ_topic_handle_tNSt7__cxx1112basic_stringIcSt11char_traitsIcESaIcEEEEECI2NS0_16_Variant_storageILb0EJS2_S8_EEEILm1EJS8_EEESt16in_place_index_tIXT_EEDpOT0_' type='func-type' binding='weak-binding' visibility='default-visibility' is-defined='yes'/>
    <elf-symbol name='_ZNSt8__detail9__variant15_Move_ctor_baseILb0EJ17PJ_topic_handle_tNSt7__cxx1112basic_stringIcSt11char_traitsIcESaIcEEEEED1Ev' type='func-type' binding='weak-binding' visibility='default-visibility' alias='_ZNSt8__detail9__variant15_Move_ctor_baseILb0EJ17PJ_topic_handle_tNSt7__cxx1112basic_stringIcSt11char_traitsIcESaIcEEEEED2Ev' is-defined='yes'/>
    <elf-symbol name='_ZNSt8__detail9__variant15_Move_ctor_baseILb0EJ17PJ_topic_handle_tNSt7__cxx1112basic_stringIcSt11char_traitsIcESaIcEEEEED2Ev' type='func-type' binding='weak-binding' visibility='default-visibility' is-defined='yes'/>
    <elf-symbol name='_ZNSt8__detail9__variant15_Move_ctor_baseILb0EJ26PJ_parser_binding_handle_tNSt7__cxx1112basic_stringIcSt11char_traitsIcESaIcEEEEECI1NS0_16_Variant_storageILb0EJS2_S8_EEEILm0EJS2_EEESt16in_place_index_tIXT_EEDpOT0_' type='func-type' binding='weak-binding' visibility='default-visibility' alias='_ZNSt8__detail9__variant15_Move_ctor_baseILb0EJ26PJ_parser_binding_handle_tNSt7__cxx1112basic_stringIcSt11char_traitsIcESaIcEEEEECI2NS0_16_Variant_storageILb0EJS2_S8_EEEILm0EJS2_EEESt16in_place_index_tIXT_EEDpOT0_' is-defined='yes'/>
    <elf-symbol name='_ZNSt8__detail9__variant15_Move_ctor_baseILb0EJ26PJ_parser_binding_handle_tNSt7__cxx1112basic_stringIcSt11char_traitsIcESaIcEEEEECI1NS0_16_Variant_storageILb0EJS2_S8_EEEILm1EJS8_EEESt16in_place_index_tIXT_EEDpOT0_' type='func-type' binding='weak-binding' visibility='default-visibility' alias='_ZNSt8__detail9__variant15_Move_ctor_baseILb0EJ26PJ_parser_binding_handle_tNSt7__cxx1112basic_stringIcSt11char_traitsIcESaIcEEEEECI2NS0_16_Variant_storageILb0EJS2_S8_EEEILm1EJS8_EEESt16in_place_index_tIXT_EEDpOT0_' is-defined='yes'/>
    <elf-symbol name='_ZNSt8__detail9__variant15_Move_ctor_baseILb0EJ26PJ_parser_binding_handle_tNSt7__cxx1112basic_stringIcSt11char_traitsIcESaIcEEEEECI2NS0_16_Variant_storageILb0EJS2_S8_EEEILm0EJS2_EEESt16in_place_index_tIXT_EEDpOT0_' type='func-type' binding='weak-binding' visibility='default-visibility' is-defined='yes'/>
    <elf-symbol name='_ZNSt8__detail9__variant15_Move_ctor_baseILb0EJ26PJ_parser_binding_handle_tNSt7__cxx1112basic_stringIcSt11char_traitsIcESaIcEEEEECI2NS0_16_Variant_storageILb0EJS2_S8_EEEILm1EJS8_EEESt16in_place_index_tIXT_EEDpOT0_' type='func-type' binding='weak-binding' visibility='default-visibility' is-defined='yes'/>
    <elf-symbol name='_ZNSt8__detail9__variant15_Move_ctor_baseILb0EJ26PJ_parser_binding_handle_tNSt7__cxx1112basic_stringIcSt11char_traitsIcESaIcEEEEED1Ev' type='func-type' binding='weak-binding' visibility='default-visibility' alias='_ZNSt8__detail9__variant15_Move_ctor_baseILb0EJ26PJ_parser_binding_handle_tNSt7__cxx1112basic_stringIcSt11char_traitsIcESaIcEEEEED2Ev' is-defined='yes'/>
    <elf-symbol name='_ZNSt8__detail9__variant15_Move_ctor_baseILb0EJ26PJ_parser_binding_handle_tNSt7__cxx1112basic_stringIcSt11char_traitsIcESaIcEEEEED2Ev' type='func-type' binding='weak-binding' visibility='default-visibility' is-defined='yes'/>
    <elf-symbol name='_ZNSt8__detail9__variant15_Move_ctor_baseILb0EJN2PJ25DataSourceRuntimeHostViewENSt7__cxx1112basic_stringIcSt11char_traitsIcESaIcEEEEECI1NS0_16_Variant_storageILb0EJS3_S9_EEEILm0EJS3_EEESt16in_place_index_tIXT_EEDpOT0_' type='func-type' binding='weak-binding' visibility='default-visibility' alias='_ZNSt8__detail9__variant15_Move_ctor_baseILb0EJN2PJ25DataSourceRuntimeHostViewENSt7__cxx1112basic_stringIcSt11char_traitsIcESaIcEEEEECI2NS0_16_Variant_storageILb0EJS3_S9_EEEILm0EJS3_EEESt16in_place_index_tIXT_EEDpOT0_' is-defined='yes'/>
    <elf-symbol name='_ZNSt8__detail9__variant15_Move_ctor_baseILb0EJN2PJ25DataSourceRuntimeHostViewENSt7__cxx1112basic_stringIcSt11char_traitsIcESaIcEEEEECI1NS0_16_Variant_storageILb0EJS3_S9_EEEILm1EJS9_EEESt16in_place_index_tIXT_EEDpOT0_' type='func-type' binding='weak-binding' visibility='default-visibility' alias='_ZNSt8__detail9__variant15_Move_ctor_baseILb0EJN2PJ25DataSourceRuntimeHostViewENSt7__cxx1112basic_stringIcSt11char_traitsIcESaIcEEEEECI2NS0_16_Variant_storageILb0EJS3_S9_EEEILm1EJS9_EEESt16in_place_index_tIXT_EEDpOT0_' is-defined='yes'/>
    <elf-symbol name='_ZNSt8__detail9__variant15_Move_ctor_baseILb0EJN2PJ25DataSourceRuntimeHostViewENSt7__cxx1112basic_stringIcSt11char_traitsIcESaIcEEEEECI2NS0_16_Variant_storageILb0EJS3_S9_EEEILm0EJS3_EEESt16in_place_index_tIXT_EEDpOT0_' type='func-type' binding='weak-binding' visibility='default-visibility' is-defined='yes'/>
    <elf-symbol name='_ZNSt8__detail9__variant15_Move_ctor_baseILb0EJN2PJ25DataSourceRuntimeHostViewENSt7__cxx1112basic_stringIcSt11char_traitsIcESaIcEEEEECI2NS0_16_Variant_storageILb0EJS3_S9_EEEILm1EJS9_EEESt16in_place_index_tIXT_EEDpOT0_' type='func-type' binding='weak-binding' visibility='default-visibility' is-defined='yes'/>
    <elf-symbol name='_ZNSt8__detail9__variant15_Move_ctor_baseILb0EJN2PJ25DataSourceRuntimeHostViewENSt7__cxx1112basic_stringIcSt11char_traitsIcESaIcEEEEED1Ev' type='func-type' binding='weak-binding' visibility='default-visibility' alias='_ZNSt8__detail9__variant15_Move_ctor_baseILb0EJN2PJ25DataSourceRuntimeHostViewENSt7__cxx1112basic_stringIcSt11char_traitsIcESaIcEEEEED2Ev' is-defined='yes'/>
    <elf-symbol name='_ZNSt8__detail9__variant15_Move_ctor_baseILb0EJN2PJ25DataSourceRuntimeHostViewENSt7__cxx1112basic_stringIcSt11char_traitsIcESaIcEEEEED2Ev' type='func-type' binding='weak-binding' visibility='default-visibility' is-defined='yes'/>
    <elf-symbol name='_ZNSt8__detail9__variant15_Move_ctor_baseILb0EJN2PJ3sdk19SourceWriteHostViewENSt7__cxx1112basic_stringIcSt11char_traitsIcESaIcEEEEECI1NS0_16_Variant_storageILb0EJS4_SA_EEEILm0EJS4_EEESt16in_place_index_tIXT_EEDpOT0_' type='func-type' binding='weak-binding' visibility='default-visibility' is-defined='yes'/>
    <elf-symbol name='_ZNSt8__detail9__variant15_Move_ctor_baseILb0EJN2PJ3sdk19SourceWriteHostViewENSt7__cxx1112basic_stringIcSt11char_traitsIcESaIcEEEEECI1NS0_16_Variant_storageILb0EJS4_SA_EEEILm1EJSA_EEESt16in_place_index_tIXT_EEDpOT0_' type='func-type' binding='weak-binding' visibility='default-visibility' is-defined='yes'/>
    <elf-symbol name='_ZNSt8__detail9__variant15_Move_ctor_baseILb0EJN2PJ3sdk19SourceWriteHostViewENSt7__cxx1112basic_stringIcSt11char_traitsIcESaIcEEEEECI2NS0_16_Variant_storageILb0EJS4_SA_EEEILm0EJS4_EEESt16in_place_index_tIXT_EEDpOT0_' type='func-type' binding='weak-binding' visibility='default-visibility' alias='_ZNSt8__detail9__variant15_Move_ctor_baseILb0EJN2PJ3sdk19SourceWriteHostViewENSt7__cxx1112basic_stringIcSt11char_traitsIcESaIcEEEEECI1NS0_16_Variant_storageILb0EJS4_SA_EEEILm0EJS4_EEESt16in_place_index_tIXT_EEDpOT0_' is-defined='yes'/>
    <elf-symbol name='_ZNSt8__detail9__variant15_Move_ctor_baseILb0EJN2PJ3sdk19SourceWriteHostViewENSt7__cxx1112basic_stringIcSt11char_traitsIcESaIcEEEEECI2NS0_16_Variant_storageILb0EJS4_SA_EEEILm1EJSA_EEESt16in_place_index_tIXT_EEDpOT0_' type='func-type' binding='weak-binding' visibility='default-visibility' alias='_ZNSt8__detail9__variant15_Move_ctor_baseILb0EJN2PJ3sdk19SourceWriteHostViewENSt7__cxx1112basic_stringIcSt11char_traitsIcESaIcEEEEECI1NS0_16_Variant_storageILb0EJS4_SA_EEEILm1EJSA_EEESt16in_place_index_tIXT_EEDpOT0_' is-defined='yes'/>
    <elf-symbol name='_ZNSt8__detail9__variant15_Move_ctor_baseILb0EJN2PJ3sdk19SourceWriteHostViewENSt7__cxx1112basic_stringIcSt11char_traitsIcESaIcEEEEED1Ev' type='func-type' binding='weak-binding' visibility='default-visibility' alias='_ZNSt8__detail9__variant15_Move_ctor_baseILb0EJN2PJ3sdk19SourceWriteHostViewENSt7__cxx1112basic_stringIcSt11char_traitsIcESaIcEEEEED2Ev' is-defined='yes'/>
    <elf-symbol name='_ZNSt8__detail9__variant15_Move_ctor_baseILb0EJN2PJ3sdk19SourceWriteHostViewENSt7__cxx1112basic_stringIcSt11char_traitsIcESaIcEEEEED2Ev' type='func-type' binding='weak-binding' visibility='default-visibility' is-defined='yes'/>
    <elf-symbol name='_ZNSt8__detail9__variant15_Variadic_unionIJ17PJ_topic_handle_tNSt7__cxx1112basic_stringIcSt11char_traitsIcESaIcEEEEEC1IJS2_EEESt16in_place_index_tILm0EEDpOT_' type='func-type' binding='weak-binding' visibility='default-visibility' is-defined='yes'/>
    <elf-symbol name='_ZNSt8__detail9__variant15_Variadic_unionIJ17PJ_topic_handle_tNSt7__cxx1112basic_stringIcSt11char_traitsIcESaIcEEEEEC1ILm1EJS8_EEESt16in_place_index_tIXT_EEDpOT0_' type='func-type' binding='weak-binding' visibility='default-visibility' is-defined='yes'/>
    <elf-symbol name='_ZNSt8__detail9__variant15_Variadic_unionIJ17PJ_topic_handle_tNSt7__cxx1112basic_stringIcSt11char_traitsIcESaIcEEEEEC2IJS2_EEESt16in_place_index_tILm0EEDpOT_' type='func-type' binding='weak-binding' visibility='default-visibility' alias='_ZNSt8__detail9__variant15_Variadic_unionIJ17PJ_topic_handle_tNSt7__cxx1112basic_stringIcSt11char_traitsIcESaIcEEEEEC1IJS2_EEESt16in_place_index_tILm0EEDpOT_' is-defined='yes'/>
    <elf-symbol name='_ZNSt8__detail9__variant15_Variadic_unionIJ17PJ_topic_handle_tNSt7__cxx1112basic_stringIcSt11char_traitsIcESaIcEEEEEC2ILm1EJS8_EEESt16in_place_index_tIXT_EEDpOT0_' type='func-type' binding='weak-binding' visibility='default-visibility' alias='_ZNSt8__detail9__variant15_Variadic_unionIJ17PJ_topic_handle_tNSt7__cxx1112basic_stringIcSt11char_traitsIcESaIcEEEEEC1ILm1EJS8_EEESt16in_place_index_tIXT_EEDpOT0_' is-defined='yes'/>
    <elf-symbol name='_ZNSt8__detail9__variant15_Variadic_unionIJ26PJ_parser_binding_handle_tNSt7__cxx1112basic_stringIcSt11char_traitsIcESaIcEEEEEC1IJS2_EEESt16in_place_index_tILm0EEDpOT_' type='func-type' binding='weak-binding' visibility='default-visibility' is-defined='yes'/>
    <elf-symbol name='_ZNSt8__detail9__variant15_Variadic_unionIJ26PJ_parser_binding_handle_tNSt7__cxx1112basic_stringIcSt11char_traitsIcESaIcEEEEEC1ILm1EJS8_EEESt16in_place_index_tIXT_EEDpOT0_' type='func-type' binding='weak-binding' visibility='default-visibility' is-defined='yes'/>
    <elf-symbol name='_ZNSt8__detail9__variant15_Variadic_unionIJ26PJ_parser_binding_handle_tNSt7__cxx1112basic_stringIcSt11char_traitsIcESaIcEEEEEC2IJS2_EEESt16in_place_index_tILm0EEDpOT_' type='func-type' binding='weak-binding' visibility='default-visibility' alias='_ZNSt8__detail9__variant15_Variadic_unionIJ26PJ_parser_binding_handle_tNSt7__cxx1112basic_stringIcSt11char_traitsIcESaIcEEEEEC1IJS2_EEESt16in_place_index_tILm0EEDpOT_' is-defined='yes'/>
    <elf-symbol name='_ZNSt8__detail9__variant15_Variadic_unionIJ26PJ_parser_binding_handle_tNSt7__cxx1112basic_stringIcSt11char_traitsIcESaIcEEEEEC2ILm1EJS8_EEESt16in_place_index_tIXT_EEDpOT0_' type='func-type' binding='weak-binding' visibility='default-visibility' alias='_ZNSt8__detail9__variant15_Variadic_unionIJ26PJ_parser_binding_handle_tNSt7__cxx1112basic_stringIcSt11char_traitsIcESaIcEEEEEC1ILm1EJS8_EEESt16in_place_index_tIXT_EEDpOT0_' is-defined='yes'/>
    <elf-symbol name='_ZNSt8__detail9__variant15_Variadic_unionIJN2PJ25DataSourceRuntimeHostViewENSt7__cxx1112basic_stringIcSt11char_traitsIcESaIcEEEEEC1IJS3_EEESt16in_place_index_tILm0EEDpOT_' type='func-type' binding='weak-binding' visibility='default-visibility' is-defined='yes'/>
    <elf-symbol name='_ZNSt8__detail9__variant15_Variadic_unionIJN2PJ25DataSourceRuntimeHostViewENSt7__cxx1112basic_stringIcSt11char_traitsIcESaIcEEEEEC1ILm1EJS9_EEESt16in_place_index_tIXT_EEDpOT0_' type='func-type' binding='weak-binding' visibility='default-visibility' is-defined='yes'/>
    <elf-symbol name='_ZNSt8__detail9__variant15_Variadic_unionIJN2PJ25DataSourceRuntimeHostViewENSt7__cxx1112basic_stringIcSt11char_traitsIcESaIcEEEEEC2IJS3_EEESt16in_place_index_tILm0EEDpOT_' type='func-type' binding='weak-binding' visibility='default-visibility' alias='_ZNSt8__detail9__variant15_Variadic_unionIJN2PJ25DataSourceRuntimeHostViewENSt7__cxx1112basic_stringIcSt11char_traitsIcESaIcEEEEEC1IJS3_EEESt16in_place_index_tILm0EEDpOT_' is-defined='yes'/>
    <elf-symbol name='_ZNSt8__detail9__variant15_Variadic_unionIJN2PJ25DataSourceRuntimeHostViewENSt7__cxx1112basic_stringIcSt11char_traitsIcESaIcEEEEEC2ILm1EJS9_EEESt16in_place_index_tIXT_EEDpOT0_' type='func-type' binding='weak-binding' visibility='default-visibility' alias='_ZNSt8__detail9__variant15_Variadic_unionIJN2PJ25DataSourceRuntimeHostViewENSt7__cxx1112basic_stringIcSt11char_traitsIcESaIcEEEEEC1ILm1EJS9_EEESt16in_place_index_tIXT_EEDpOT0_' is-defined='yes'/>
    <elf-symbol name='_ZNSt8__detail9__variant15_Variadic_unionIJN2PJ3sdk19SourceWriteHostViewENSt7__cxx1112basic_stringIcSt11char_traitsIcESaIcEEEEEC1IJS4_EEESt16in_place_index_tILm0EEDpOT_' type='func-type' binding='weak-binding' visibility='default-visibility' is-defined='yes'/>
    <elf-symbol name='_ZNSt8__detail9__variant15_Variadic_unionIJN2PJ3sdk19SourceWriteHostViewENSt7__cxx1112basic_stringIcSt11char_traitsIcESaIcEEEEEC1ILm1EJSA_EEESt16in_place_index_tIXT_EEDpOT0_' type='func-type' binding='weak-binding' visibility='default-visibility' is-defined='yes'/>
    <elf-symbol name='_ZNSt8__detail9__variant15_Variadic_unionIJN2PJ3sdk19SourceWriteHostViewENSt7__cxx1112basic_stringIcSt11char_traitsIcESaIcEEEEEC2IJS4_EEESt16in_place_index_tILm0EEDpOT_' type='func-type' binding='weak-binding' visibility='default-visibility' alias='_ZNSt8__detail9__variant15_Variadic_unionIJN2PJ3sdk19SourceWriteHostViewENSt7__cxx1112basic_stringIcSt11char_traitsIcESaIcEEEEEC1IJS4_EEESt16in_place_index_tILm0EEDpOT_' is-defined='yes'/>
    <elf-symbol name='_ZNSt8__detail9__variant15_Variadic_unionIJN2PJ3sdk19SourceWriteHostViewENSt7__cxx1112basic_stringIcSt11char_traitsIcESaIcEEEEEC2ILm1EJSA_EEESt16in_place_index_tIXT_EEDpOT0_' type='func-type' binding='weak-binding' visibility='default-visibility' alias='_ZNSt8__detail9__variant15_Variadic_unionIJN2PJ3sdk19SourceWriteHostViewENSt7__cxx1112basic_stringIcSt11char_traitsIcESaIcEEEEEC1ILm1EJSA_EEESt16in_place_index_tIXT_EEDpOT0_' is-defined='yes'/>
    <elf-symbol name='_ZNSt8__detail9__variant15_Variadic_unionIJNSt7__cxx1112basic_stringIcSt11char_traitsIcESaIcEEEEEC1IJS7_EEESt16in_place_index_tILm0EEDpOT_' type='func-type' binding='weak-binding' visibility='default-visibility' is-defined='yes'/>
    <elf-symbol name='_ZNSt8__detail9__variant15_Variadic_unionIJNSt7__cxx1112basic_stringIcSt11char_traitsIcESaIcEEEEEC2IJS7_EEESt16in_place_index_tILm0EEDpOT_' type='func-type' binding='weak-binding' visibility='default-visibility' alias='_ZNSt8__detail9__variant15_Variadic_unionIJNSt7__cxx1112basic_stringIcSt11char_traitsIcESaIcEEEEEC1IJS7_EEESt16in_place_index_tILm0EEDpOT_' is-defined='yes'/>
    <elf-symbol name='_ZNSt8__detail9__variant16_Variant_storageILb0EJ17PJ_topic_handle_tNSt7__cxx1112basic_stringIcSt11char_traitsIcESaIcEEEEE8_M_resetEv' type='func-type' binding='weak-binding' visibility='default-visibility' is-defined='yes'/>
    <elf-symbol name='_ZNSt8__detail9__variant16_Variant_storageILb0EJ17PJ_topic_handle_tNSt7__cxx1112basic_stringIcSt11char_traitsIcESaIcEEEEEC1ILm0EJS2_EEESt16in_place_index_tIXT_EEDpOT0_' type='func-type' binding='weak-binding' visibility='default-visibility' is-defined='yes'/>
    <elf-symbol name='_ZNSt8__detail9__variant16_Variant_storageILb0EJ17PJ_topic_handle_tNSt7__cxx1112basic_stringIcSt11char_traitsIcESaIcEEEEEC1ILm1EJS8_EEESt16in_place_index_tIXT_EEDpOT0_' type='func-type' binding='weak-binding' visibility='default-visibility' is-defined='yes'/>
    <elf-symbol name='_ZNSt8__detail9__variant16_Variant_storageILb0EJ17PJ_topic_handle_tNSt7__cxx1112basic_stringIcSt11char_traitsIcESaIcEEEEEC2ILm0EJS2_EEESt16in_place_index_tIXT_EEDpOT0_' type='func-type' binding='weak-binding' visibility='default-visibility' alias='_ZNSt8__detail9__variant16_Variant_storageILb0EJ17PJ_topic_handle_tNSt7__cxx1112basic_stringIcSt11char_traitsIcESaIcEEEEEC1ILm0EJS2_EEESt16in_place_index_tIXT_EEDpOT0_' is-defined='yes'/>
    <elf-symbol name='_ZNSt8__detail9__variant16_Variant_storageILb0EJ17PJ_topic_handle_tNSt7__cxx1112basic_stringIcSt11char_traitsIcESaIcEEEEEC2ILm1EJS8_EEESt16in_place_index_tIXT_EEDpOT0_' type='func-type' binding='weak-binding' visibility='default-visibility' alias='_ZNSt8__detail9__variant16_Variant_storageILb0EJ17PJ_topic_handle_tNSt7__cxx1112basic_stringIcSt11char_traitsIcESaIcEEEEEC1ILm1EJS8_EEESt16in_place_index_tIXT_EEDpOT0_' is-defined='yes'/>
    <elf-symbol name='_ZNSt8__detail9__variant16_Variant_storageILb0EJ17PJ_topic_handle_tNSt7__cxx1112basic_stringIcSt11char_traitsIcESaIcEEEEED1Ev' type='func-type' binding='weak-binding' visibility='default-visibility' is-defined='yes'/>
    <elf-symbol name='_ZNSt8__detail9__variant16_Variant_storageILb0EJ17PJ_topic_handle_tNSt7__cxx1112basic_stringIcSt11char_traitsIcESaIcEEEEED2Ev' type='func-type' binding='weak-binding' visibility='default-visibility' alias='_ZNSt8__detail9__variant16_Variant_storageILb0EJ17PJ_topic_handle_tNSt7__cxx1112basic_stringIcSt11char_traitsIcESaIcEEEEED1Ev' is-defined='yes'/>
    <elf-symbol name='_ZNSt8__detail9__variant16_Variant_storageILb0EJ26PJ_parser_binding_handle_tNSt7__cxx1112basic_stringIcSt11char_traitsIcESaIcEEEEE8_M_resetEv' type='func-type' binding='weak-binding' visibility='default-visibility' is-defined='yes'/>
    <elf-symbol name='_ZNSt8__detail9__variant16_Variant_storageILb0EJ26PJ_parser_binding_handle_tNSt7__cxx1112basic_stringIcSt11char_traitsIcESaIcEEEEEC1ILm0EJS2_EEESt16in_place_index_tIXT_EEDpOT0_' type='func-type' binding='weak-binding' visibility='default-visibility' is-defined='yes'/>
    <elf-symbol name='_ZNSt8__detail9__variant16_Variant_storageILb0EJ26PJ_parser_binding_handle_tNSt7__cxx1112basic_stringIcSt11char_traitsIcESaIcEEEEEC1ILm1EJS8_EEESt16in_place_index_tIXT_EEDpOT0_' type='func-type' binding='weak-binding' visibility='default-visibility' is-defined='yes'/>
    <elf-symbol name='_ZNSt8__detail9__variant16_Variant_storageILb0EJ26PJ_parser_binding_handle_tNSt7__cxx1112basic_stringIcSt11char_traitsIcESaIcEEEEEC2ILm0EJS2_EEESt16in_place_index_tIXT_EEDpOT0_' type='func-type' binding='weak-binding' visibility='default-visibility' alias='_ZNSt8__detail9__variant16_Variant_storageILb0EJ26PJ_parser_binding_handle_tNSt7__cxx1112basic_stringIcSt11char_traitsIcESaIcEEEEEC1ILm0EJS2_EEESt16in_place_index_tIXT_EEDpOT0_' is-defined='yes'/>
    <elf-symbol name='_ZNSt8__detail9__variant16_Variant_storageILb0EJ26PJ_parser_binding_handle_tNSt7__cxx1112basic_stringIcSt11char_traitsIcESaIcEEEEEC2ILm1EJS8_EEESt16in_place_index_tIXT_EEDpOT0_' type='func-type' binding='weak-binding' visibility='default-visibility' alias='_ZNSt8__detail9__variant16_Variant_storageILb0EJ26PJ_parser_binding_handle_tNSt7__cxx1112basic_stringIcSt11char_traitsIcESaIcEEEEEC1ILm1EJS8_EEESt16in_place_index_tIXT_EEDpOT0_' is-defined='yes'/>
    <elf-symbol name='_ZNSt8__detail9__variant16_Variant_storageILb0EJ26PJ_parser_binding_handle_tNSt7__cxx1112basic_stringIcSt11char_traitsIcESaIcEEEEED1Ev' type='func-type' binding='weak-binding' visibility='default-visibility' is-defined='yes'/>
    <elf-symbol name='_ZNSt8__detail9__variant16_Variant_storageILb0EJ26PJ_parser_binding_handle_tNSt7__cxx1112basic_stringIcSt11char_traitsIcESaIcEEEEED2Ev' type='func-type' binding='weak-binding' visibility='default-visibility' alias='_ZNSt8__detail9__variant16_Variant_storageILb0EJ26PJ_parser_binding_handle_tNSt7__cxx1112basic_stringIcSt11char_traitsIcESaIcEEEEED1Ev' is-defined='yes'/>
    <elf-symbol name='_ZNSt8__detail9__variant16_Variant_storageILb0EJN2PJ25DataSourceRuntimeHostViewENSt7__cxx1112basic_stringIcSt11char_traitsIcESaIcEEEEE8_M_resetEv' type='func-type' binding='weak-binding' visibility='default-visibility' is-defined='yes'/>
    <elf-symbol name='_ZNSt8__detail9__variant16_Variant_storageILb0EJN2PJ25DataSourceRuntimeHostViewENSt7__cxx1112basic_stringIcSt11char_traitsIcESaIcEEEEEC1ILm0EJS3_EEESt16in_place_index_tIXT_EEDpOT0_' type='func-type' binding='weak-binding' visibility='default-visibility' is-defined='yes'/>
    <elf-symbol name='_ZNSt8__detail9__variant16_Variant_storageILb0EJN2PJ25DataSourceRuntimeHostViewENSt7__cxx1112basic_stringIcSt11char_traitsIcESaIcEEEEEC1ILm1EJS9_EEESt16in_place_index_tIXT_EEDpOT0_' type='func-type' binding='weak-binding' visibility='default-visibility' is-defined='yes'/>
    <elf-symbol name='_ZNSt8__detail9__variant16_Variant_storageILb0EJN2PJ25DataSourceRuntimeHostViewENSt7__cxx1112basic_stringIcSt11char_traitsIcESaIcEEEEEC2ILm0EJS3_EEESt16in_place_index_tIXT_EEDpOT0_' type='func-type' binding='weak-binding' visibility='default-visibility' alias='_ZNSt8__detail9__variant16_Variant_storageILb0EJN2PJ25DataSourceRuntimeHostViewENSt7__cxx1112basic_stringIcSt11char_traitsIcESaIcEEEEEC1ILm0EJS3_EEESt16in_place_index_tIXT_EEDpOT0_' is-defined='yes'/>
    <elf-symbol name='_ZNSt8__detail9__variant16_Variant_storageILb0EJN2PJ25DataSourceRuntimeHostViewENSt7__cxx1112basic_stringIcSt11char_traitsIcESaIcEEEEEC2ILm1EJS9_EEESt16in_place_index_tIXT_EEDpOT0_' type='func-type' binding='weak-binding' visibility='default-visibility' alias='_ZNSt8__detail9__variant16_Variant_storageILb0EJN2PJ25DataSourceRuntimeHostViewENSt7__cxx1112basic_stringIcSt11char_traitsIcESaIcEEEEEC1ILm1EJS9_EEESt16in_place_index_tIXT_EEDpOT0_' is-defined='yes'/>
    <elf-symbol name='_ZNSt8__detail9__variant16_Variant_storageILb0EJN2PJ25DataSourceRuntimeHostViewENSt7__cxx1112basic_stringIcSt11char_traitsIcESaIcEEEEED1Ev' type='func-type' binding='weak-binding' visibility='default-visibility' is-defined='yes'/>
    <elf-symbol name='_ZNSt8__detail9__variant16_Variant_storageILb0EJN2PJ25DataSourceRuntimeHostViewENSt7__cxx1112basic_stringIcSt11char_traitsIcESaIcEEEEED2Ev' type='func-type' binding='weak-binding' visibility='default-visibility' alias='_ZNSt8__detail9__variant16_Variant_storageILb0EJN2PJ25DataSourceRuntimeHostViewENSt7__cxx1112basic_stringIcSt11char_traitsIcESaIcEEEEED1Ev' is-defined='yes'/>
    <elf-symbol name='_ZNSt8__detail9__variant16_Variant_storageILb0EJN2PJ3sdk19SourceWriteHostViewENSt7__cxx1112basic_stringIcSt11char_traitsIcESaIcEEEEE8_M_resetEv' type='func-type' binding='weak-binding' visibility='default-visibility' is-defined='yes'/>
    <elf-symbol name='_ZNSt8__detail9__variant16_Variant_storageILb0EJN2PJ3sdk19SourceWriteHostViewENSt7__cxx1112basic_stringIcSt11char_traitsIcESaIcEEEEEC1ILm0EJS4_EEESt16in_place_index_tIXT_EEDpOT0_' type='func-type' binding='weak-binding' visibility='default-visibility' is-defined='yes'/>
    <elf-symbol name='_ZNSt8__detail9__variant16_Variant_storageILb0EJN2PJ3sdk19SourceWriteHostViewENSt7__cxx1112basic_stringIcSt11char_traitsIcESaIcEEEEEC1ILm1EJSA_EEESt16in_place_index_tIXT_EEDpOT0_' type='func-type' binding='weak-binding' visibility='default-visibility' is-defined='yes'/>
    <elf-symbol name='_ZNSt8__detail9__variant16_Variant_storageILb0EJN2PJ3sdk19SourceWriteHostViewENSt7__cxx1112basic_stringIcSt11char_traitsIcESaIcEEEEEC2ILm0EJS4_EEESt16in_place_index_tIXT_EEDpOT0_' type='func-type' binding='weak-binding' visibility='default-visibility' alias='_ZNSt8__detail9__variant16_Variant_storageILb0EJN2PJ3sdk19SourceWriteHostViewENSt7__cxx1112basic_stringIcSt11char_traitsIcESaIcEEEEEC1ILm0EJS4_EEESt16in_place_index_tIXT_EEDpOT0_' is-defined='yes'/>
    <elf-symbol name='_ZNSt8__detail9__variant16_Variant_storageILb0EJN2PJ3sdk19SourceWriteHostViewENSt7__cxx1112basic_stringIcSt11char_traitsIcESaIcEEEEEC2ILm1EJSA_EEESt16in_place_index_tIXT_EEDpOT0_' type='func-type' binding='weak-binding' visibility='default-visibility' alias='_ZNSt8__detail9__variant16_Variant_storageILb0EJN2PJ3sdk19SourceWriteHostViewENSt7__cxx1112basic_stringIcSt11char_traitsIcESaIcEEEEEC1ILm1EJSA_EEESt16in_place_index_tIXT_EEDpOT0_' is-defined='yes'/>
    <elf-symbol name='_ZNSt8__detail9__variant16_Variant_storageILb0EJN2PJ3sdk19SourceWriteHostViewENSt7__cxx1112basic_stringIcSt11char_traitsIcESaIcEEEEED1Ev' type='func-type' binding='weak-binding' visibility='default-visibility' is-defined='yes'/>
    <elf-symbol name='_ZNSt8__detail9__variant16_Variant_storageILb0EJN2PJ3sdk19SourceWriteHostViewENSt7__cxx1112basic_stringIcSt11char_traitsIcESaIcEEEEED2Ev' type='func-type' binding='weak-binding' visibility='default-visibility' alias='_ZNSt8__detail9__variant16_Variant_storageILb0EJN2PJ3sdk19SourceWriteHostViewENSt7__cxx1112basic_stringIcSt11char_traitsIcESaIcEEEEED1Ev' is-defined='yes'/>
    <elf-symbol name='_ZNSt8__detail9__variant17_Copy_assign_baseILb0EJ17PJ_topic_handle_tNSt7__cxx1112basic_stringIcSt11char_traitsIcESaIcEEEEECI1NS0_16_Variant_storageILb0EJS2_S8_EEEILm0EJS2_EEESt16in_place_index_tIXT_EEDpOT0_' type='func-type' binding='weak-binding' visibility='default-visibility' alias='_ZNSt8__detail9__variant17_Copy_assign_baseILb0EJ17PJ_topic_handle_tNSt7__cxx1112basic_stringIcSt11char_traitsIcESaIcEEEEECI2NS0_16_Variant_storageILb0EJS2_S8_EEEILm0EJS2_EEESt16in_place_index_tIXT_EEDpOT0_' is-defined='yes'/>
    <elf-symbol name='_ZNSt8__detail9__variant17_Copy_assign_baseILb0EJ17PJ_topic_handle_tNSt7__cxx1112basic_stringIcSt11char_traitsIcESaIcEEEEECI1NS0_16_Variant_storageILb0EJS2_S8_EEEILm1EJS8_EEESt16in_place_index_tIXT_EEDpOT0_' type='func-type' binding='weak-binding' visibility='default-visibility' alias='_ZNSt8__detail9__variant17_Copy_assign_baseILb0EJ17PJ_topic_handle_tNSt7__cxx1112basic_stringIcSt11char_traitsIcESaIcEEEEECI2NS0_16_Variant_storageILb0EJS2_S8_EEEILm1EJS8_EEESt16in_place_index_tIXT_EEDpOT0_' is-defined='yes'/>
    <elf-symbol name='_ZNSt8__detail9__variant17_Copy_assign_baseILb0EJ17PJ_topic_handle_tNSt7__cxx1112basic_stringIcSt11char_traitsIcESaIcEEEEECI2NS0_16_Variant_storageILb0EJS2_S8_EEEILm0EJS2_EEESt16in_place_index_tIXT_EEDpOT0_' type='func-type' binding='weak-binding' visibility='default-visibility' is-defined='yes'/>
    <elf-symbol name='_ZNSt8__detail9__variant17_Copy_assign_baseILb0EJ17PJ_topic_handle_tNSt7__cxx1112basic_stringIcSt11char_traitsIcESaIcEEEEECI2NS0_16_Variant_storageILb0EJS2_S8_EEEILm1EJS8_EEESt16in_place_index_tIXT_EEDpOT0_' type='func-type' binding='weak-binding' visibility='default-visibility' is-defined='yes'/>
    <elf-symbol name='_ZNSt8__detail9__variant17_Copy_assign_baseILb0EJ17PJ_topic_handle_tNSt7__cxx1112basic_stringIcSt11char_traitsIcESaIcEEEEED1Ev' type='func-type' binding='weak-binding' visibility='default-visibility' alias='_ZNSt8__detail9__variant17_Copy_assign_baseILb0EJ17PJ_topic_handle_tNSt7__cxx1112basic_stringIcSt11char_traitsIcESaIcEEEEED2Ev' is-defined='yes'/>
    <elf-symbol name='_ZNSt8__detail9__variant17_Copy_assign_baseILb0EJ17PJ_topic_handle_tNSt7__cxx1112basic_stringIcSt11char_traitsIcESaIcEEEEED2Ev' type='func-type' binding='weak-binding' visibility='default-visibility' is-defined='yes'/>
    <elf-symbol name='_ZNSt8__detail9__variant17_Copy_assign_baseILb0EJ26PJ_parser_binding_handle_tNSt7__cxx1112basic_stringIcSt11char_traitsIcESaIcEEEEECI1NS0_16_Variant_storageILb0EJS2_S8_EEEILm0EJS2_EEESt16in_place_index_tIXT_EEDpOT0_' type='func-type' binding='weak-binding' visibility='default-visibility' alias='_ZNSt8__detail9__variant17_Copy_assign_baseILb0EJ26PJ_parser_binding_handle_tNSt7__cxx1112basic_stringIcSt11char_traitsIcESaIcEEEEECI2NS0_16_Variant_storageILb0EJS2_S8_EEEILm0EJS2_EEESt16in_place_index_tIXT_EEDpOT0_' is-defined='yes'/>
    <elf-symbol name='_ZNSt8__detail9__variant17_Copy_assign_baseILb0EJ26PJ_parser_binding_handle_tNSt7__cxx1112basic_stringIcSt11char_traitsIcESaIcEEEEECI1NS0_16_Variant_storageILb0EJS2_S8_EEEILm1EJS8_EEESt16in_place_index_tIXT_EEDpOT0_' type='func-type' binding='weak-binding' visibility='default-visibility' alias='_ZNSt8__detail9__variant17_Copy_assign_baseILb0EJ26PJ_parser_binding_handle_tNSt7__cxx1112basic_stringIcSt11char_traitsIcESaIcEEEEECI2NS0_16_Variant_storageILb0EJS2_S8_EEEILm1EJS8_EEESt16in_place_index_tIXT_EEDpOT0_' is-defined='yes'/>
    <elf-symbol name='_ZNSt8__detail9__variant17_Copy_assign_baseILb0EJ26PJ_parser_binding_handle_tNSt7__cxx1112basic_stringIcSt11char_traitsIcESaIcEEEEECI2NS0_16_Variant_storageILb0EJS2_S8_EEEILm0EJS2_EEESt16in_place_index_tIXT_EEDpOT0_' type='func-type' binding='weak-binding' visibility='default-visibility' is-defined='yes'/>
    <elf-symbol name='_ZNSt8__detail9__variant17_Copy_assign_baseILb0EJ26PJ_parser_binding_handle_tNSt7__cxx1112basic_stringIcSt11char_traitsIcESaIcEEEEECI2NS0_16_Variant_storageILb0EJS2_S8_EEEILm1EJS8_EEESt16in_place_index_tIXT_EEDpOT0_' type='func-type' binding='weak-binding' visibility='default-visibility' is-defined='yes'/>
    <elf-symbol name='_ZNSt8__detail9__variant17_Copy_assign_baseILb0EJ26PJ_parser_binding_handle_tNSt7__cxx1112basic_stringIcSt11char_traitsIcESaIcEEEEED1Ev' type='func-type' binding='weak-binding' visibility='default-visibility' alias='_ZNSt8__detail9__variant17_Copy_assign_baseILb0EJ26PJ_parser_binding_handle_tNSt7__cxx1112basic_stringIcSt11char_traitsIcESaIcEEEEED2Ev' is-defined='yes'/>
    <elf-symbol name='_ZNSt8__detail9__variant17_Copy_assign_baseILb0EJ26PJ_parser_binding_handle_tNSt7__cxx1112basic_stringIcSt11char_traitsIcESaIcEEEEED2Ev' type='func-type' binding='weak-binding' visibility='default-visibility' is-defined='yes'/>
    <elf-symbol name='_ZNSt8__detail9__variant17_Copy_assign_baseILb0EJN2PJ25DataSourceRuntimeHostViewENSt7__cxx1112basic_stringIcSt11char_traitsIcESaIcEEEEECI1NS0_16_Variant_storageILb0EJS3_S9_EEEILm0EJS3_EEESt16in_place_index_tIXT_EEDpOT0_' type='func-type' binding='weak-binding' visibility='default-visibility' alias='_ZNSt8__detail9__variant17_Copy_assign_baseILb0EJN2PJ25DataSourceRuntimeHostViewENSt7__cxx1112basic_stringIcSt11char_traitsIcESaIcEEEEECI2NS0_16_Variant_storageILb0EJS3_S9_EEEILm0EJS3_EEESt16in_place_index_tIXT_EEDpOT0_' is-defined='yes'/>
    <elf-symbol name='_ZNSt8__detail9__variant17_Copy_assign_baseILb0EJN2PJ25DataSourceRuntimeHostViewENSt7__cxx1112basic_stringIcSt11char_traitsIcESaIcEEEEECI1NS0_16_Variant_storageILb0EJS3_S9_EEEILm1EJS9_EEESt16in_place_index_tIXT_EEDpOT0_' type='func-type' binding='weak-binding' visibility='default-visibility' alias='_ZNSt8__detail9__variant17_Copy_assign_baseILb0EJN2PJ25DataSourceRuntimeHostViewENSt7__cxx1112basic_stringIcSt11char_traitsIcESaIcEEEEECI2NS0_16_Variant_storageILb0EJS3_S9_EEEILm1EJS9_EEESt16in_place_index_tIXT_EEDpOT0_' is-defined='yes'/>
    <elf-symbol name='_ZNSt8__detail9__variant17_Copy_assign_baseILb0EJN2PJ25DataSourceRuntimeHostViewENSt7__cxx1112basic_stringIcSt11char_traitsIcESaIcEEEEECI2NS0_16_Variant_storageILb0EJS3_S9_EEEILm0EJS3_EEESt16in_place_index_tIXT_EEDpOT0_' type='func-type' binding='weak-binding' visibility='default-visibility' is-defined='yes'/>
    <elf-symbol name='_ZNSt8__detail9__variant17_Copy_assign_baseILb0EJN2PJ25DataSourceRuntimeHostViewENSt7__cxx1112basic_stringIcSt11char_traitsIcESaIcEEEEECI2NS0_16_Variant_storageILb0EJS3_S9_EEEILm1EJS9_EEESt16in_place_index_tIXT_EEDpOT0_' type='func-type' binding='weak-binding' visibility='default-visibility' is-defined='yes'/>
    <elf-symbol name='_ZNSt8__detail9__variant17_Copy_assign_baseILb0EJN2PJ25DataSourceRuntimeHostViewENSt7__cxx1112basic_stringIcSt11char_traitsIcESaIcEEEEED1Ev' type='func-type' binding='weak-binding' visibility='default-visibility' alias='_ZNSt8__detail9__variant17_Copy_assign_baseILb0EJN2PJ25DataSourceRuntimeHostViewENSt7__cxx1112basic_stringIcSt11char_traitsIcESaIcEEEEED2Ev' is-defined='yes'/>
    <elf-symbol name='_ZNSt8__detail9__variant17_Copy_assign_baseILb0EJN2PJ25DataSourceRuntimeHostViewENSt7__cxx1112basic_stringIcSt11char_traitsIcESaIcEEEEED2Ev' type='func-type' binding='weak-binding' visibility='default-visibility' is-defined='yes'/>
    <elf-symbol name='_ZNSt8__detail9__variant17_Copy_assign_baseILb0EJN2PJ3sdk19SourceWriteHostViewENSt7__cxx1112basic_stringIcSt11char_traitsIcESaIcEEEEECI1NS0_16_Variant_storageILb0EJS4_SA_EEEILm0EJS4_EEESt16in_place_index_tIXT_EEDpOT0_' type='func-type' binding='weak-binding' visibility='default-visibility' alias='_ZNSt8__detail9__variant17_Copy_assign_baseILb0EJN2PJ3sdk19SourceWriteHostViewENSt7__cxx1112basic_stringIcSt11char_traitsIcESaIcEEEEECI2NS0_16_Variant_storageILb0EJS4_SA_EEEILm0EJS4_EEESt16in_place_index_tIXT_EEDpOT0_' is-defined='yes'/>
    <elf-symbol name='_ZNSt8__detail9__variant17_Copy_assign_baseILb0EJN2PJ3sdk19SourceWriteHostViewENSt7__cxx1112basic_stringIcSt11char_traitsIcESaIcEEEEECI1NS0_16_Variant_storageILb0EJS4_SA_EEEILm1EJSA_EEESt16in_place_index_tIXT_EEDpOT0_' type='func-type' binding='weak-binding' visibility='default-visibility' alias='_ZNSt8__detail9__variant17_Copy_assign_baseILb0EJN2PJ3sdk19SourceWriteHostViewENSt7__cxx1112basic_stringIcSt11char_traitsIcESaIcEEEEECI2NS0_16_Variant_storageILb0EJS4_SA_EEEILm1EJSA_EEESt16in_place_index_tIXT_EEDpOT0_' is-defined='yes'/>
    <elf-symbol name='_ZNSt8__detail9__variant17_Copy_assign_baseILb0EJN2PJ3sdk19SourceWriteHostViewENSt7__cxx1112basic_stringIcSt11char_traitsIcESaIcEEEEECI2NS0_16_Variant_storageILb0EJS4_SA_EEEILm0EJS4_EEESt16in_place_index_tIXT_EEDpOT0_' type='func-type' binding='weak-binding' visibility='default-visibility' is-defined='yes'/>
    <elf-symbol name='_ZNSt8__detail9__variant17_Copy_assign_baseILb0EJN2PJ3sdk19SourceWriteHostViewENSt7__cxx1112basic_stringIcSt11char_traitsIcESaIcEEEEECI2NS0_16_Variant_storageILb0EJS4_SA_EEEILm1EJSA_EEESt16in_place_index_tIXT_EEDpOT0_' type='func-type' binding='weak-binding' visibility='default-visibility' is-defined='yes'/>
    <elf-symbol name='_ZNSt8__detail9__variant17_Copy_assign_baseILb0EJN2PJ3sdk19SourceWriteHostViewENSt7__cxx1112basic_stringIcSt11char_traitsIcESaIcEEEEED1Ev' type='func-type' binding='weak-binding' visibility='default-visibility' alias='_ZNSt8__detail9__variant17_Copy_assign_baseILb0EJN2PJ3sdk19SourceWriteHostViewENSt7__cxx1112basic_stringIcSt11char_traitsIcESaIcEEEEED2Ev' is-defined='yes'/>
    <elf-symbol name='_ZNSt8__detail9__variant17_Copy_assign_baseILb0EJN2PJ3sdk19SourceWriteHostViewENSt7__cxx1112basic_stringIcSt11char_traitsIcESaIcEEEEED2Ev' type='func-type' binding='weak-binding' visibility='default-visibility' is-defined='yes'/>
    <elf-symbol name='_ZNSt8__detail9__variant17_Move_assign_baseILb0EJ17PJ_topic_handle_tNSt7__cxx1112basic_stringIcSt11char_traitsIcESaIcEEEEECI1NS0_16_Variant_storageILb0EJS2_S8_EEEILm0EJS2_EEESt16in_place_index_tIXT_EEDpOT0_' type='func-type' binding='weak-binding' visibility='default-visibility' alias='_ZNSt8__detail9__variant17_Move_assign_baseILb0EJ17PJ_topic_handle_tNSt7__cxx1112basic_stringIcSt11char_traitsIcESaIcEEEEECI2NS0_16_Variant_storageILb0EJS2_S8_EEEILm0EJS2_EEESt16in_place_index_tIXT_EEDpOT0_' is-defined='yes'/>
    <elf-symbol name='_ZNSt8__detail9__variant17_Move_assign_baseILb0EJ17PJ_topic_handle_tNSt7__cxx1112basic_stringIcSt11char_traitsIcESaIcEEEEECI1NS0_16_Variant_storageILb0EJS2_S8_EEEILm1EJS8_EEESt16in_place_index_tIXT_EEDpOT0_' type='func-type' binding='weak-binding' visibility='default-visibility' alias='_ZNSt8__detail9__variant17_Move_assign_baseILb0EJ17PJ_topic_handle_tNSt7__cxx1112basic_stringIcSt11char_traitsIcESaIcEEEEECI2NS0_16_Variant_storageILb0EJS2_S8_EEEILm1EJS8_EEESt16in_place_index_tIXT_EEDpOT0_' is-defined='yes'/>
    <elf-symbol name='_ZNSt8__detail9__variant17_Move_assign_baseILb0EJ17PJ_topic_handle_tNSt7__cxx1112basic_stringIcSt11char_traitsIcESaIcEEEEECI2NS0_16_Variant_storageILb0EJS2_S8_EEEILm0EJS2_EEESt16in_place_index_tIXT_EEDpOT0_' type='func-type' binding='weak-binding' visibility='default-visibility' is-defined='yes'/>
    <elf-symbol name='_ZNSt8__detail9__variant17_Move_assign_baseILb0EJ17PJ_topic_handle_tNSt7__cxx1112basic_stringIcSt11char_traitsIcESaIcEEEEECI2NS0_16_Variant_storageILb0EJS2_S8_EEEILm1EJS8_EEESt16in_place_index_tIXT_EEDpOT0_' type='func-type' binding='weak-binding' visibility='default-visibility' is-defined='yes'/>
    <elf-symbol name='_ZNSt8__detail9__variant17_Move_assign_baseILb0EJ17PJ_topic_handle_tNSt7__cxx1112basic_stringIcSt11char_traitsIcESaIcEEEEED1Ev' type='func-type' binding='weak-binding' visibility='default-visibility' alias='_ZNSt8__detail9__variant17_Move_assign_baseILb0EJ17PJ_topic_handle_tNSt7__cxx1112basic_stringIcSt11char_traitsIcESaIcEEEEED2Ev' is-defined='yes'/>
    <elf-symbol name='_ZNSt8__detail9__variant17_Move_assign_baseILb0EJ17PJ_topic_handle_tNSt7__cxx1112basic_stringIcSt11char_traitsIcESaIcEEEEED2Ev' type='func-type' binding='weak-binding' visibility='default-visibility' is-defined='yes'/>
    <elf-symbol name='_ZNSt8__detail9__variant17_Move_assign_baseILb0EJ26PJ_parser_binding_handle_tNSt7__cxx1112basic_stringIcSt11char_traitsIcESaIcEEEEECI1NS0_16_Variant_storageILb0EJS2_S8_EEEILm0EJS2_EEESt16in_place_index_tIXT_EEDpOT0_' type='func-type' binding='weak-binding' visibility='default-visibility' alias='_ZNSt8__detail9__variant17_Move_assign_baseILb0EJ26PJ_parser_binding_handle_tNSt7__cxx1112basic_stringIcSt11char_traitsIcESaIcEEEEECI2NS0_16_Variant_storageILb0EJS2_S8_EEEILm0EJS2_EEESt16in_place_index_tIXT_EEDpOT0_' is-defined='yes'/>
    <elf-symbol name='_ZNSt8__detail9__variant17_Move_assign_baseILb0EJ26PJ_parser_binding_handle_tNSt7__cxx1112basic_stringIcSt11char_traitsIcESaIcEEEEECI1NS0_16_Variant_storageILb0EJS2_S8_EEEILm1EJS8_EEESt16in_place_index_tIXT_EEDpOT0_' type='func-type' binding='weak-binding' visibility='default-visibility' alias='_ZNSt8__detail9__variant17_Move_assign_baseILb0EJ26PJ_parser_binding_handle_tNSt7__cxx1112basic_stringIcSt11char_traitsIcESaIcEEEEECI2NS0_16_Variant_storageILb0EJS2_S8_EEEILm1EJS8_EEESt16in_place_index_tIXT_EEDpOT0_' is-defined='yes'/>
    <elf-symbol name='_ZNSt8__detail9__variant17_Move_assign_baseILb0EJ26PJ_parser_binding_handle_tNSt7__cxx1112basic_stringIcSt11char_traitsIcESaIcEEEEECI2NS0_16_Variant_storageILb0EJS2_S8_EEEILm0EJS2_EEESt16in_place_index_tIXT_EEDpOT0_' type='func-type' binding='weak-binding' visibility='default-visibility' is-defined='yes'/>
    <elf-symbol name='_ZNSt8__detail9__variant17_Move_assign_baseILb0EJ26PJ_parser_binding_handle_tNSt7__cxx1112basic_stringIcSt11char_traitsIcESaIcEEEEECI2NS0_16_Variant_storageILb0EJS2_S8_EEEILm1EJS8_EEESt16in_place_index_tIXT_EEDpOT0_' type='func-type' binding='weak-binding' visibility='default-visibility' is-defined='yes'/>
    <elf-symbol name='_ZNSt8__detail9__variant17_Move_assign_baseILb0EJ26PJ_parser_binding_handle_tNSt7__cxx1112basic_stringIcSt11char_traitsIcESaIcEEEEED1Ev' type='func-type' binding='weak-binding' visibility='default-visibility' alias='_ZNSt8__detail9__variant17_Move_assign_baseILb0EJ26PJ_parser_binding_handle_tNSt7__cxx1112basic_stringIcSt11char_traitsIcESaIcEEEEED2Ev' is-defined='yes'/>
    <elf-symbol name='_ZNSt8__detail9__variant17_Move_assign_baseILb0EJ26PJ_parser_binding_handle_tNSt7__cxx1112basic_stringIcSt11char_traitsIcESaIcEEEEED2Ev' type='func-type' binding='weak-binding' visibility='default-visibility' is-defined='yes'/>
    <elf-symbol name='_ZNSt8__detail9__variant17_Move_assign_baseILb0EJN2PJ25DataSourceRuntimeHostViewENSt7__cxx1112basic_stringIcSt11char_traitsIcESaIcEEEEECI1NS0_16_Variant_storageILb0EJS3_S9_EEEILm0EJS3_EEESt16in_place_index_tIXT_EEDpOT0_' type='func-type' binding='weak-binding' visibility='default-visibility' is-defined='yes'/>
    <elf-symbol name='_ZNSt8__detail9__variant17_Move_assign_baseILb0EJN2PJ25DataSourceRuntimeHostViewENSt7__cxx1112basic_stringIcSt11char_traitsIcESaIcEEEEECI1NS0_16_Variant_storageILb0EJS3_S9_EEEILm1EJS9_EEESt16in_place_index_tIXT_EEDpOT0_' type='func-type' binding='weak-binding' visibility='default-visibility' alias='_ZNSt8__detail9__variant17_Move_assign_baseILb0EJN2PJ25DataSourceRuntimeHostViewENSt7__cxx1112basic_stringIcSt11char_traitsIcESaIcEEEEECI2NS0_16_Variant_storageILb0EJS3_S9_EEEILm1EJS9_EEESt16in_place_index_tIXT_EEDpOT0_' is-defined='yes'/>
    <elf-symbol name='_ZNSt8__detail9__variant17_Move_assign_baseILb0EJN2PJ25DataSourceRuntimeHostViewENSt7__cxx1112basic_stringIcSt11char_traitsIcESaIcEEEEECI2NS0_16_Variant_storageILb0EJS3_S9_EEEILm0EJS3_EEESt16in_place_index_tIXT_EEDpOT0_' type='func-type' binding='weak-binding' visibility='default-visibility' alias='_ZNSt8__detail9__variant17_Move_assign_baseILb0EJN2PJ25DataSourceRuntimeHostViewENSt7__cxx1112basic_stringIcSt11char_traitsIcESaIcEEEEECI1NS0_16_Variant_storageILb0EJS3_S9_EEEILm0EJS3_EEESt16in_place_index_tIXT_EEDpOT0_' is-defined='yes'/>
    <elf-symbol name='_ZNSt8__detail9__variant17_Move_assign_baseILb0EJN2PJ25DataSourceRuntimeHostViewENSt7__cxx1112basic_stringIcSt11char_traitsIcESaIcEEEEECI2NS0_16_Variant_storageILb0EJS3_S9_EEEILm1EJS9_EEESt16in_place_index_tIXT_EEDpOT0_' type='func-type' binding='weak-binding' visibility='default-visibility' is-defined='yes'/>
    <elf-symbol name='_ZNSt8__detail9__variant17_Move_assign_baseILb0EJN2PJ25DataSourceRuntimeHostViewENSt7__cxx1112basic_stringIcSt11char_traitsIcESaIcEEEEED1Ev' type='func-type' binding='weak-binding' visibility='default-visibility' alias='_ZNSt8__detail9__variant17_Move_assign_baseILb0EJN2PJ25DataSourceRuntimeHostViewENSt7__cxx1112basic_stringIcSt11char_traitsIcESaIcEEEEED2Ev' is-defined='yes'/>
    <elf-symbol name='_ZNSt8__detail9__variant17_Move_assign_baseILb0EJN2PJ25DataSourceRuntimeHostViewENSt7__cxx1112basic_stringIcSt11char_traitsIcESaIcEEEEED2Ev' type='func-type' binding='weak-binding' visibility='default-visibility' is-defined='yes'/>
    <elf-symbol name='_ZNSt8__detail9__variant17_Move_assign_baseILb0EJN2PJ3sdk19SourceWriteHostViewENSt7__cxx1112basic_stringIcSt11char_traitsIcESaIcEEEEECI1NS0_16_Variant_storageILb0EJS4_SA_EEEILm0EJS4_EEESt16in_place_index_tIXT_EEDpOT0_' type='func-type' binding='weak-binding' visibility='default-visibility' alias='_ZNSt8__detail9__variant17_Move_assign_baseILb0EJN2PJ3sdk19SourceWriteHostViewENSt7__cxx1112basic_stringIcSt11char_traitsIcESaIcEEEEECI2NS0_16_Variant_storageILb0EJS4_SA_EEEILm0EJS4_EEESt16in_place_index_tIXT_EEDpOT0_' is-defined='yes'/>
    <elf-symbol name='_ZNSt8__detail9__variant17_Move_assign_baseILb0EJN2PJ3sdk19SourceWriteHostViewENSt7__cxx1112basic_stringIcSt11char_traitsIcESaIcEEEEECI1NS0_16_Variant_storageILb0EJS4_SA_EEEILm1EJSA_EEESt16in_place_index_tIXT_EEDpOT0_' type='func-type' binding='weak-binding' visibility='default-visibility' is-defined='yes'/>
    <elf-symbol name='_ZNSt8__detail9__variant17_Move_assign_baseILb0EJN2PJ3sdk19SourceWriteHostViewENSt7__cxx1112basic_stringIcSt11char_traitsIcESaIcEEEEECI2NS0_16_Variant_storageILb0EJS4_SA_EEEILm0EJS4_EEESt16in_place_index_tIXT_EEDpOT0_' type='func-type' binding='weak-binding' visibility='default-visibility' is-defined='yes'/>
    <elf-symbol name='_ZNSt8__detail9__variant17_Move_assign_baseILb0EJN2PJ3sdk19SourceWriteHostViewENSt7__cxx1112basic_stringIcSt11char_traitsIcESaIcEEEEECI2NS0_16_Variant_storageILb0EJS4_SA_EEEILm1EJSA_EEESt16in_place_index_tIXT_EEDpOT0_' type='func-type' binding='weak-binding' visibility='default-visibility' alias='_ZNSt8__detail9__variant17_Move_assign_baseILb0EJN2PJ3sdk19SourceWriteHostViewENSt7__cxx1112basic_stringIcSt11char_traitsIcESaIcEEEEECI1NS0_16_Variant_storageILb0EJS4_SA_EEEILm1EJSA_EEESt16in_place_index_tIXT_EEDpOT0_' is-defined='yes'/>
    <elf-symbol name='_ZNSt8__detail9__variant17_Move_assign_baseILb0EJN2PJ3sdk19SourceWriteHostViewENSt7__cxx1112basic_stringIcSt11char_traitsIcESaIcEEEEED1Ev' type='func-type' binding='weak-binding' visibility='default-visibility' alias='_ZNSt8__detail9__variant17_Move_assign_baseILb0EJN2PJ3sdk19SourceWriteHostViewENSt7__cxx1112basic_stringIcSt11char_traitsIcESaIcEEEEED2Ev' is-defined='yes'/>
    <elf-symbol name='_ZNSt8__detail9__variant17_Move_assign_baseILb0EJN2PJ3sdk19SourceWriteHostViewENSt7__cxx1112basic_stringIcSt11char_traitsIcESaIcEEEEED2Ev' type='func-type' binding='weak-binding' visibility='default-visibility' is-defined='yes'/>
    <elf-symbol name='_ZNSt8__detail9__variant17__gen_vtable_implINS0_12_Multi_arrayIPFNS0_21__deduce_visit_resultIN2PJ13PrimitiveTypeEEEOZNS4_3sdk6typeOfERKSt7variantIJNS4_9NullValueENS7_9TypedNullEfdasilhtjmbSt17basic_string_viewIcSt11char_traitsIcEEEEEUlOT_E_SH_EJEEESt16integer_sequenceImJLm0EEEE14__visit_invokeESL_SH_' type='func-type' binding='weak-binding' visibility='default-visibility' is-defined='yes'/>
    <elf-symbol name='_ZNSt8__detail9__variant17__gen_vtable_implINS0_12_Multi_arrayIPFNS0_21__deduce_visit_resultIN2PJ13PrimitiveTypeEEEOZNS4_3sdk6typeOfERKSt7variantIJNS4_9NullValueENS7_9TypedNullEfdasilhtjmbSt17basic_string_viewIcSt11char_traitsIcEEEEEUlOT_E_SH_EJEEESt16integer_sequenceImJLm0EEEE28__element_by_index_or_cookieILm0ESH_EEDcOT0_' type='func-type' binding='weak-binding' visibility='default-visibility' is-defined='yes'/>
    <elf-symbol name='_ZNSt8__detail9__variant17__gen_vtable_implINS0_12_Multi_arrayIPFNS0_21__deduce_visit_resultIN2PJ13PrimitiveTypeEEEOZNS4_3sdk6typeOfERKSt7variantIJNS4_9NullValueENS7_9TypedNullEfdasilhtjmbSt17basic_string_viewIcSt11char_traitsIcEEEEEUlOT_E_SH_EJEEESt16integer_sequenceImJLm10EEEE14__visit_invokeESL_SH_' type='func-type' binding='weak-binding' visibility='default-visibility' is-defined='yes'/>
    <elf-symbol name='_ZNSt8__detail9__variant17__gen_vtable_implINS0_12_Multi_arrayIPFNS0_21__deduce_visit_resultIN2PJ13PrimitiveTypeEEEOZNS4_3sdk6typeOfERKSt7variantIJNS4_9NullValueENS7_9TypedNullEfdasilhtjmbSt17basic_string_viewIcSt11char_traitsIcEEEEEUlOT_E_SH_EJEEESt16integer_sequenceImJLm10EEEE28__element_by_index_or_cookieILm10ESH_EEDcOT0_' type='func-type' binding='weak-binding' visibility='default-visibility' is-defined='yes'/>
    <elf-symbol name='_ZNSt8__detail9__variant17__gen_vtable_implINS0_12_Multi_arrayIPFNS0_21__deduce_visit_resultIN2PJ13PrimitiveTypeEEEOZNS4_3sdk6typeOfERKSt7variantIJNS4_9NullValueENS7_9TypedNullEfdasilhtjmbSt17basic_string_viewIcSt11char_traitsIcEEEEEUlOT_E_SH_EJEEESt16integer_sequenceImJLm11EEEE14__visit_invokeESL_SH_' type='func-type' binding='weak-binding' visibility='default-visibility' is-defined='yes'/>
    <elf-symbol name='_ZNSt8__detail9__variant17__gen_vtable_implINS0_12_Multi_arrayIPFNS0_21__deduce_visit_resultIN2PJ13PrimitiveTypeEEEOZNS4_3sdk6typeOfERKSt7variantIJNS4_9NullValueENS7_9TypedNullEfdasilhtjmbSt17basic_string_viewIcSt11char_traitsIcEEEEEUlOT_E_SH_EJEEESt16integer_sequenceImJLm11EEEE28__element_by_index_or_cookieILm11ESH_EEDcOT0_' type='func-type' binding='weak-binding' visibility='default-visibility' is-defined='yes'/>
    <elf-symbol name='_ZNSt8__detail9__variant17__gen_vtable_implINS0_12_Multi_arrayIPFNS0_21__deduce_visit_resultIN2PJ13PrimitiveTypeEEEOZNS4_3sdk6typeOfERKSt7variantIJNS4_9NullValueENS7_9TypedNullEfdasilhtjmbSt17basic_string_viewIcSt11char_traitsIcEEEEEUlOT_E_SH_EJEEESt16integer_sequenceImJLm12EEEE14__visit_invokeESL_SH_' type='func-type' binding='weak-binding' visibility='default-visibility' is-defined='yes'/>
    <elf-symbol name='_ZNSt8__detail9__variant17__gen_vtable_implINS0_12_Multi_arrayIPFNS0_21__deduce_visit_resultIN2PJ13PrimitiveTypeEEEOZNS4_3sdk6typeOfERKSt7variantIJNS4_9NullValueENS7_9TypedNullEfdasilhtjmbSt17basic_string_viewIcSt11char_traitsIcEEEEEUlOT_E_SH_EJEEESt16integer_sequenceImJLm12EEEE28__element_by_index_or_cookieILm12ESH_EEDcOT0_' type='func-type' binding='weak-binding' visibility='default-visibility' is-defined='yes'/>
    <elf-symbol name='_ZNSt8__detail9__variant17__gen_vtable_implINS0_12_Multi_arrayIPFNS0_21__deduce_visit_resultIN2PJ13PrimitiveTypeEEEOZNS4_3sdk6typeOfERKSt7variantIJNS4_9NullValueENS7_9TypedNullEfdasilhtjmbSt17basic_string_viewIcSt11char_traitsIcEEEEEUlOT_E_SH_EJEEESt16integer_sequenceImJLm13EEEE14__visit_invokeESL_SH_' type='func-type' binding='weak-binding' visibility='default-visibility' is-defined='yes'/>
    <elf-symbol name='_ZNSt8__detail9__variant17__gen_vtable_implINS0_12_Multi_arrayIPFNS0_21__deduce_visit_resultIN2PJ13PrimitiveTypeEEEOZNS4_3sdk6typeOfERKSt7variantIJNS4_9NullValueENS7_9TypedNullEfdasilhtjmbSt17basic_string_viewIcSt11char_traitsIcEEEEEUlOT_E_SH_EJEEESt16integer_sequenceImJLm13EEEE28__element_by_index_or_cookieILm13ESH_EEDcOT0_' type='func-type' binding='weak-binding' visibility='default-visibility' is-defined='yes'/>
    <elf-symbol name='_ZNSt8__detail9__variant17__gen_vtable_implINS0_12_Multi_arrayIPFNS0_21__deduce_visit_resultIN2PJ13PrimitiveTypeEEEOZNS4_3sdk6typeOfERKSt7variantIJNS4_9NullValueENS7_9TypedNullEfdasilhtjmbSt17basic_string_viewIcSt11char_traitsIcEEEEEUlOT_E_SH_EJEEESt16integer_sequenceImJLm1EEEE14__visit_invokeESL_SH_' type='func-type' binding='weak-binding' visibility='default-visibility' is-defined='yes'/>
    <elf-symbol name='_ZNSt8__detail9__variant17__gen_vtable_implINS0_12_Multi_arrayIPFNS0_21__deduce_visit_resultIN2PJ13PrimitiveTypeEEEOZNS4_3sdk6typeOfERKSt7variantIJNS4_9NullValueENS7_9TypedNullEfdasilhtjmbSt17basic_string_viewIcSt11char_traitsIcEEEEEUlOT_E_SH_EJEEESt16integer_sequenceImJLm1EEEE28__element_by_index_or_cookieILm1ESH_EEDcOT0_' type='func-type' binding='weak-binding' visibility='default-visibility' is-defined='yes'/>
    <elf-symbol name='_ZNSt8__detail9__variant17__gen_vtable_implINS0_12_Multi_arrayIPFNS0_21__deduce_visit_resultIN2PJ13PrimitiveTypeEEEOZNS4_3sdk6typeOfERKSt7variantIJNS4_9NullValueENS7_9TypedNullEfdasilhtjmbSt17basic_string_viewIcSt11char_traitsIcEEEEEUlOT_E_SH_EJEEESt16integer_sequenceImJLm2EEEE14__visit_invokeESL_SH_' type='func-type' binding='weak-binding' visibility='default-visibility' is-defined='yes'/>
    <elf-symbol name='_ZNSt8__detail9__variant17__gen_vtable_implINS0_12_Multi_arrayIPFNS0_21__deduce_visit_resultIN2PJ13PrimitiveTypeEEEOZNS4_3sdk6typeOfERKSt7variantIJNS4_9NullValueENS7_9TypedNullEfdasilhtjmbSt17basic_string_viewIcSt11char_traitsIcEEEEEUlOT_E_SH_EJEEESt16integer_sequenceImJLm2EEEE28__element_by_index_or_cookieILm2ESH_EEDcOT0_' type='func-type' binding='weak-binding' visibility='default-visibility' is-defined='yes'/>
    <elf-symbol name='_ZNSt8__detail9__variant17__gen_vtable_implINS0_12_Multi_arrayIPFNS0_21__deduce_visit_resultIN2PJ13PrimitiveTypeEEEOZNS4_3sdk6typeOfERKSt7variantIJNS4_9NullValueENS7_9TypedNullEfdasilhtjmbSt17basic_string_viewIcSt11char_traitsIcEEEEEUlOT_E_SH_EJEEESt16integer_sequenceImJLm3EEEE14__visit_invokeESL_SH_' type='func-type' binding='weak-binding' visibility='default-visibility' is-defined='yes'/>
    <elf-symbol name='_ZNSt8__detail9__variant17__gen_vtable_implINS0_12_Multi_arrayIPFNS0_21__deduce_visit_resultIN2PJ13PrimitiveTypeEEEOZNS4_3sdk6typeOfERKSt7variantIJNS4_9NullValueENS7_9TypedNullEfdasilhtjmbSt17basic_string_viewIcSt11char_traitsIcEEEEEUlOT_E_SH_EJEEESt16integer_sequenceImJLm3EEEE28__element_by_index_or_cookieILm3ESH_EEDcOT0_' type='func-type' binding='weak-binding' visibility='default-visibility' is-defined='yes'/>
    <elf-symbol name='_ZNSt8__detail9__variant17__gen_vtable_implINS0_12_Multi_arrayIPFNS0_21__deduce_visit_resultIN2PJ13PrimitiveTypeEEEOZNS4_3sdk6typeOfERKSt7variantIJNS4_9NullValueENS7_9TypedNullEfdasilhtjmbSt17basic_string_viewIcSt11char_traitsIcEEEEEUlOT_E_SH_EJEEESt16integer_sequenceImJLm4EEEE14__visit_invokeESL_SH_' type='func-type' binding='weak-binding' visibility='default-visibility' is-defined='yes'/>
    <elf-symbol name='_ZNSt8__detail9__variant17__gen_vtable_implINS0_12_Multi_arrayIPFNS0_21__deduce_visit_resultIN2PJ13PrimitiveTypeEEEOZNS4_3sdk6typeOfERKSt7variantIJNS4_9NullValueENS7_9TypedNullEfdasilhtjmbSt17basic_string_viewIcSt11char_traitsIcEEEEEUlOT_E_SH_EJEEESt16integer_sequenceImJLm4EEEE28__element_by_index_or_cookieILm4ESH_EEDcOT0_' type='func-type' binding='weak-binding' visibility='default-visibility' is-defined='yes'/>
    <elf-symbol name='_ZNSt8__detail9__variant17__gen_vtable_implINS0_12_Multi_arrayIPFNS0_21__deduce_visit_resultIN2PJ13PrimitiveTypeEEEOZNS4_3sdk6typeOfERKSt7variantIJNS4_9NullValueENS7_9TypedNullEfdasilhtjmbSt17basic_string_viewIcSt11char_traitsIcEEEEEUlOT_E_SH_EJEEESt16integer_sequenceImJLm5EEEE14__visit_invokeESL_SH_' type='func-type' binding='weak-binding' visibility='default-visibility' is-defined='yes'/>
    <elf-symbol name='_ZNSt8__detail9__variant17__gen_vtable_implINS0_12_Multi_arrayIPFNS0_21__deduce_visit_resultIN2PJ13PrimitiveTypeEEEOZNS4_3sdk6typeOfERKSt7variantIJNS4_9NullValueENS7_9TypedNullEfdasilhtjmbSt17basic_string_viewIcSt11char_traitsIcEEEEEUlOT_E_SH_EJEEESt16integer_sequenceImJLm5EEEE28__element_by_index_or_cookieILm5ESH_EEDcOT0_' type='func-type' binding='weak-binding' visibility='default-visibility' is-defined='yes'/>
    <elf-symbol name='_ZNSt8__detail9__variant17__gen_vtable_implINS0_12_Multi_arrayIPFNS0_21__deduce_visit_resultIN2PJ13PrimitiveTypeEEEOZNS4_3sdk6typeOfERKSt7variantIJNS4_9NullValueENS7_9TypedNullEfdasilhtjmbSt17basic_string_viewIcSt11char_traitsIcEEEEEUlOT_E_SH_EJEEESt16integer_sequenceImJLm6EEEE14__visit_invokeESL_SH_' type='func-type' binding='weak-binding' visibility='default-visibility' is-defined='yes'/>
    <elf-symbol name='_ZNSt8__detail9__variant17__gen_vtable_implINS0_12_Multi_arrayIPFNS0_21__deduce_visit_resultIN2PJ13PrimitiveTypeEEEOZNS4_3sdk6typeOfERKSt7variantIJNS4_9NullValueENS7_9TypedNullEfdasilhtjmbSt17basic_string_viewIcSt11char_traitsIcEEEEEUlOT_E_SH_EJEEESt16integer_sequenceImJLm6EEEE28__element_by_index_or_cookieILm6ESH_EEDcOT0_' type='func-type' binding='weak-binding' visibility='default-visibility' is-defined='yes'/>
    <elf-symbol name='_ZNSt8__detail9__variant17__gen_vtable_implINS0_12_Multi_arrayIPFNS0_21__deduce_visit_resultIN2PJ13PrimitiveTypeEEEOZNS4_3sdk6typeOfERKSt7variantIJNS4_9NullValueENS7_9TypedNullEfdasilhtjmbSt17basic_string_viewIcSt11char_traitsIcEEEEEUlOT_E_SH_EJEEESt16integer_sequenceImJLm7EEEE14__visit_invokeESL_SH_' type='func-type' binding='weak-binding' visibility='default-visibility' is-defined='yes'/>
    <elf-symbol name='_ZNSt8__detail9__variant17__gen_vtable_implINS0_12_Multi_arrayIPFNS0_21__deduce_visit_resultIN2PJ13PrimitiveTypeEEEOZNS4_3sdk6typeOfERKSt7variantIJNS4_9NullValueENS7_9TypedNullEfdasilhtjmbSt17basic_string_viewIcSt11char_traitsIcEEEEEUlOT_E_SH_EJEEESt16integer_sequenceImJLm7EEEE28__element_by_index_or_cookieILm7ESH_EEDcOT0_' type='func-type' binding='weak-binding' visibility='default-visibility' is-defined='yes'/>
    <elf-symbol name='_ZNSt8__detail9__variant17__gen_vtable_implINS0_12_Multi_arrayIPFNS0_21__deduce_visit_resultIN2PJ13PrimitiveTypeEEEOZNS4_3sdk6typeOfERKSt7variantIJNS4_9NullValueENS7_9TypedNullEfdasilhtjmbSt17basic_string_viewIcSt11char_traitsIcEEEEEUlOT_E_SH_EJEEESt16integer_sequenceImJLm8EEEE14__visit_invokeESL_SH_' type='func-type' binding='weak-binding' visibility='default-visibility' is-defined='yes'/>
    <elf-symbol name='_ZNSt8__detail9__variant17__gen_vtable_implINS0_12_Multi_arrayIPFNS0_21__deduce_visit_resultIN2PJ13PrimitiveTypeEEEOZNS4_3sdk6typeOfERKSt7variantIJNS4_9NullValueENS7_9TypedNullEfdasilhtjmbSt17basic_string_viewIcSt11char_traitsIcEEEEEUlOT_E_SH_EJEEESt16integer_sequenceImJLm8EEEE28__element_by_index_or_cookieILm8ESH_EEDcOT0_' type='func-type' binding='weak-binding' visibility='default-visibility' is-defined='yes'/>
    <elf-symbol name='_ZNSt8__detail9__variant17__gen_vtable_implINS0_12_Multi_arrayIPFNS0_21__deduce_visit_resultIN2PJ13PrimitiveTypeEEEOZNS4_3sdk6typeOfERKSt7variantIJNS4_9NullValueENS7_9TypedNullEfdasilhtjmbSt17basic_string_viewIcSt11char_traitsIcEEEEEUlOT_E_SH_EJEEESt16integer_sequenceImJLm9EEEE14__visit_invokeESL_SH_' type='func-type' binding='weak-binding' visibility='default-visibility' is-defined='yes'/>
    <elf-symbol name='_ZNSt8__detail9__variant17__gen_vtable_implINS0_12_Multi_arrayIPFNS0_21__deduce_visit_resultIN2PJ13PrimitiveTypeEEEOZNS4_3sdk6typeOfERKSt7variantIJNS4_9NullValueENS7_9TypedNullEfdasilhtjmbSt17basic_string_viewIcSt11char_traitsIcEEEEEUlOT_E_SH_EJEEESt16integer_sequenceImJLm9EEEE28__element_by_index_or_cookieILm9ESH_EEDcOT0_' type='func-type' binding='weak-binding' visibility='default-visibility' is-defined='yes'/>
    <elf-symbol name='_ZNSt8__detail9__variant17__gen_vtable_implINS0_12_Multi_arrayIPFNS0_21__deduce_visit_resultIvEEOZN2PJ3sdk11toAbiScalarERKSt7variantIJNS5_9NullValueENS6_9TypedNullEfdasilhtjmbSt17basic_string_viewIcSt11char_traitsIcEEEEEUlOT_E_SG_EJEEESt16integer_sequenceImJLm0EEEE14__visit_invokeESK_SG_' type='func-type' binding='weak-binding' visibility='default-visibility' is-defined='yes'/>
    <elf-symbol name='_ZNSt8__detail9__variant17__gen_vtable_implINS0_12_Multi_arrayIPFNS0_21__deduce_visit_resultIvEEOZN2PJ3sdk11toAbiScalarERKSt7variantIJNS5_9NullValueENS6_9TypedNullEfdasilhtjmbSt17basic_string_viewIcSt11char_traitsIcEEEEEUlOT_E_SG_EJEEESt16integer_sequenceImJLm0EEEE28__element_by_index_or_cookieILm0ESG_EEDcOT0_' type='func-type' binding='weak-binding' visibility='default-visibility' is-defined='yes'/>
    <elf-symbol name='_ZNSt8__detail9__variant17__gen_vtable_implINS0_12_Multi_arrayIPFNS0_21__deduce_visit_resultIvEEOZN2PJ3sdk11toAbiScalarERKSt7variantIJNS5_9NullValueENS6_9TypedNullEfdasilhtjmbSt17basic_string_viewIcSt11char_traitsIcEEEEEUlOT_E_SG_EJEEESt16integer_sequenceImJLm10EEEE14__visit_invokeESK_SG_' type='func-type' binding='weak-binding' visibility='default-visibility' is-defined='yes'/>
    <elf-symbol name='_ZNSt8__detail9__variant17__gen_vtable_implINS0_12_Multi_arrayIPFNS0_21__deduce_visit_resultIvEEOZN2PJ3sdk11toAbiScalarERKSt7variantIJNS5_9NullValueENS6_9TypedNullEfdasilhtjmbSt17basic_string_viewIcSt11char_traitsIcEEEEEUlOT_E_SG_EJEEESt16integer_sequenceImJLm10EEEE28__element_by_index_or_cookieILm10ESG_EEDcOT0_' type='func-type' binding='weak-binding' visibility='default-visibility' is-defined='yes'/>
    <elf-symbol name='_ZNSt8__detail9__variant17__gen_vtable_implINS0_12_Multi_arrayIPFNS0_21__deduce_visit_resultIvEEOZN2PJ3sdk11toAbiScalarERKSt7variantIJNS5_9NullValueENS6_9TypedNullEfdasilhtjmbSt17basic_string_viewIcSt11char_traitsIcEEEEEUlOT_E_SG_EJEEESt16integer_sequenceImJLm11EEEE14__visit_invokeESK_SG_' type='func-type' binding='weak-binding' visibility='default-visibility' is-defined='yes'/>
    <elf-symbol name='_ZNSt8__detail9__variant17__gen_vtable_implINS0_12_Multi_arrayIPFNS0_21__deduce_visit_resultIvEEOZN2PJ3sdk11toAbiScalarERKSt7variantIJNS5_9NullValueENS6_9TypedNullEfdasilhtjmbSt17basic_string_viewIcSt11char_traitsIcEEEEEUlOT_E_SG_EJEEESt16integer_sequenceImJLm11EEEE28__element_by_index_or_cookieILm11ESG_EEDcOT0_' type='func-type' binding='weak-binding' visibility='default-visibility' is-defined='yes'/>
    <elf-symbol name='_ZNSt8__detail9__variant17__gen_vtable_implINS0_12_Multi_arrayIPFNS0_21__deduce_visit_resultIvEEOZN2PJ3sdk11toAbiScalarERKSt7variantIJNS5_9NullValueENS6_9TypedNullEfdasilhtjmbSt17basic_string_viewIcSt11char_traitsIcEEEEEUlOT_E_SG_EJEEESt16integer_sequenceImJLm12EEEE14__visit_invokeESK_SG_' type='func-type' binding='weak-binding' visibility='default-visibility' is-defined='yes'/>
    <elf-symbol name='_ZNSt8__detail9__variant17__gen_vtable_implINS0_12_Multi_arrayIPFNS0_21__deduce_visit_resultIvEEOZN2PJ3sdk11toAbiScalarERKSt7variantIJNS5_9NullValueENS6_9TypedNullEfdasilhtjmbSt17basic_string_viewIcSt11char_traitsIcEEEEEUlOT_E_SG_EJEEESt16integer_sequenceImJLm12EEEE28__element_by_index_or_cookieILm12ESG_EEDcOT0_' type='func-type' binding='weak-binding' visibility='default-visibility' is-defined='yes'/>
    <elf-symbol name='_ZNSt8__detail9__variant17__gen_vtable_implINS0_12_Multi_arrayIPFNS0_21__deduce_visit_resultIvEEOZN2PJ3sdk11toAbiScalarERKSt7variantIJNS5_9NullValueENS6_9TypedNullEfdasilhtjmbSt17basic_string_viewIcSt11char_traitsIcEEEEEUlOT_E_SG_EJEEESt16integer_sequenceImJLm13EEEE14__visit_invokeESK_SG_' type='func-type' binding='weak-binding' visibility='default-visibility' is-defined='yes'/>
    <elf-symbol name='_ZNSt8__detail9__variant17__gen_vtable_implINS0_12_Multi_arrayIPFNS0_21__deduce_visit_resultIvEEOZN2PJ3sdk11toAbiScalarERKSt7variantIJNS5_9NullValueENS6_9TypedNullEfdasilhtjmbSt17basic_string_viewIcSt11char_traitsIcEEEEEUlOT_E_SG_EJEEESt16integer_sequenceImJLm13EEEE28__element_by_index_or_cookieILm13ESG_EEDcOT0_' type='func-type' binding='weak-binding' visibility='default-visibility' is-defined='yes'/>
    <elf-symbol name='_ZNSt8__detail9__variant17__gen_vtable_implINS0_12_Multi_arrayIPFNS0_21__deduce_visit_resultIvEEOZN2PJ3sdk11toAbiScalarERKSt7variantIJNS5_9NullValueENS6_9TypedNullEfdasilhtjmbSt17basic_string_viewIcSt11char_traitsIcEEEEEUlOT_E_SG_EJEEESt16integer_sequenceImJLm1EEEE14__visit_invokeESK_SG_' type='func-type' binding='weak-binding' visibility='default-visibility' is-defined='yes'/>
    <elf-symbol name='_ZNSt8__detail9__variant17__gen_vtable_implINS0_12_Multi_arrayIPFNS0_21__deduce_visit_resultIvEEOZN2PJ3sdk11toAbiScalarERKSt7variantIJNS5_9NullValueENS6_9TypedNullEfdasilhtjmbSt17basic_string_viewIcSt11char_traitsIcEEEEEUlOT_E_SG_EJEEESt16integer_sequenceImJLm1EEEE28__element_by_index_or_cookieILm1ESG_EEDcOT0_' type='func-type' binding='weak-binding' visibility='default-visibility' is-defined='yes'/>
    <elf-symbol name='_ZNSt8__detail9__variant17__gen_vtable_implINS0_12_Multi_arrayIPFNS0_21__deduce_visit_resultIvEEOZN2PJ3sdk11toAbiScalarERKSt7variantIJNS5_9NullValueENS6_9TypedNullEfdasilhtjmbSt17basic_string_viewIcSt11char_traitsIcEEEEEUlOT_E_SG_EJEEESt16integer_sequenceImJLm2EEEE14__visit_invokeESK_SG_' type='func-type' binding='weak-binding' visibility='default-visibility' is-defined='yes'/>
    <elf-symbol name='_ZNSt8__detail9__variant17__gen_vtable_implINS0_12_Multi_arrayIPFNS0_21__deduce_visit_resultIvEEOZN2PJ3sdk11toAbiScalarERKSt7variantIJNS5_9NullValueENS6_9TypedNullEfdasilhtjmbSt17basic_string_viewIcSt11char_traitsIcEEEEEUlOT_E_SG_EJEEESt16integer_sequenceImJLm2EEEE28__element_by_index_or_cookieILm2ESG_EEDcOT0_' type='func-type' binding='weak-binding' visibility='default-visibility' is-defined='yes'/>
    <elf-symbol name='_ZNSt8__detail9__variant17__gen_vtable_implINS0_12_Multi_arrayIPFNS0_21__deduce_visit_resultIvEEOZN2PJ3sdk11toAbiScalarERKSt7variantIJNS5_9NullValueENS6_9TypedNullEfdasilhtjmbSt17basic_string_viewIcSt11char_traitsIcEEEEEUlOT_E_SG_EJEEESt16integer_sequenceImJLm3EEEE14__visit_invokeESK_SG_' type='func-type' binding='weak-binding' visibility='default-visibility' is-defined='yes'/>
    <elf-symbol name='_ZNSt8__detail9__variant17__gen_vtable_implINS0_12_Multi_arrayIPFNS0_21__deduce_visit_resultIvEEOZN2PJ3sdk11toAbiScalarERKSt7variantIJNS5_9NullValueENS6_9TypedNullEfdasilhtjmbSt17basic_string_viewIcSt11char_traitsIcEEEEEUlOT_E_SG_EJEEESt16integer_sequenceImJLm3EEEE28__element_by_index_or_cookieILm3ESG_EEDcOT0_' type='func-type' binding='weak-binding' visibility='default-visibility' is-defined='yes'/>
    <elf-symbol name='_ZNSt8__detail9__variant17__gen_vtable_implINS0_12_Multi_arrayIPFNS0_21__deduce_visit_resultIvEEOZN2PJ3sdk11toAbiScalarERKSt7variantIJNS5_9NullValueENS6_9TypedNullEfdasilhtjmbSt17basic_string_viewIcSt11char_traitsIcEEEEEUlOT_E_SG_EJEEESt16integer_sequenceImJLm4EEEE14__visit_invokeESK_SG_' type='func-type' binding='weak-binding' visibility='default-visibility' is-defined='yes'/>
    <elf-symbol name='_ZNSt8__detail9__variant17__gen_vtable_implINS0_12_Multi_arrayIPFNS0_21__deduce_visit_resultIvEEOZN2PJ3sdk11toAbiScalarERKSt7variantIJNS5_9NullValueENS6_9TypedNullEfdasilhtjmbSt17basic_string_viewIcSt11char_traitsIcEEEEEUlOT_E_SG_EJEEESt16integer_sequenceImJLm4EEEE28__element_by_index_or_cookieILm4ESG_EEDcOT0_' type='func-type' binding='weak-binding' visibility='default-visibility' is-defined='yes'/>
    <elf-symbol name='_ZNSt8__detail9__variant17__gen_vtable_implINS0_12_Multi_arrayIPFNS0_21__deduce_visit_resultIvEEOZN2PJ3sdk11toAbiScalarERKSt7variantIJNS5_9NullValueENS6_9TypedNullEfdasilhtjmbSt17basic_string_viewIcSt11char_traitsIcEEEEEUlOT_E_SG_EJEEESt16integer_sequenceImJLm5EEEE14__visit_invokeESK_SG_' type='func-type' binding='weak-binding' visibility='default-visibility' is-defined='yes'/>
    <elf-symbol name='_ZNSt8__detail9__variant17__gen_vtable_implINS0_12_Multi_arrayIPFNS0_21__deduce_visit_resultIvEEOZN2PJ3sdk11toAbiScalarERKSt7variantIJNS5_9NullValueENS6_9TypedNullEfdasilhtjmbSt17basic_string_viewIcSt11char_traitsIcEEEEEUlOT_E_SG_EJEEESt16integer_sequenceImJLm5EEEE28__element_by_index_or_cookieILm5ESG_EEDcOT0_' type='func-type' binding='weak-binding' visibility='default-visibility' is-defined='yes'/>
    <elf-symbol name='_ZNSt8__detail9__variant17__gen_vtable_implINS0_12_Multi_arrayIPFNS0_21__deduce_visit_resultIvEEOZN2PJ3sdk11toAbiScalarERKSt7variantIJNS5_9NullValueENS6_9TypedNullEfdasilhtjmbSt17basic_string_viewIcSt11char_traitsIcEEEEEUlOT_E_SG_EJEEESt16integer_sequenceImJLm6EEEE14__visit_invokeESK_SG_' type='func-type' binding='weak-binding' visibility='default-visibility' is-defined='yes'/>
    <elf-symbol name='_ZNSt8__detail9__variant17__gen_vtable_implINS0_12_Multi_arrayIPFNS0_21__deduce_visit_resultIvEEOZN2PJ3sdk11toAbiScalarERKSt7variantIJNS5_9NullValueENS6_9TypedNullEfdasilhtjmbSt17basic_string_viewIcSt11char_traitsIcEEEEEUlOT_E_SG_EJEEESt16integer_sequenceImJLm6EEEE28__element_by_index_or_cookieILm6ESG_EEDcOT0_' type='func-type' binding='weak-binding' visibility='default-visibility' is-defined='yes'/>
    <elf-symbol name='_ZNSt8__detail9__variant17__gen_vtable_implINS0_12_Multi_arrayIPFNS0_21__deduce_visit_resultIvEEOZN2PJ3sdk11toAbiScalarERKSt7variantIJNS5_9NullValueENS6_9TypedNullEfdasilhtjmbSt17basic_string_viewIcSt11char_traitsIcEEEEEUlOT_E_SG_EJEEESt16integer_sequenceImJLm7EEEE14__visit_invokeESK_SG_' type='func-type' binding='weak-binding' visibility='default-visibility' is-defined='yes'/>
    <elf-symbol name='_ZNSt8__detail9__variant17__gen_vtable_implINS0_12_Multi_arrayIPFNS0_21__deduce_visit_resultIvEEOZN2PJ3sdk11toAbiScalarERKSt7variantIJNS5_9NullValueENS6_9TypedNullEfdasilhtjmbSt17basic_string_viewIcSt11char_traitsIcEEEEEUlOT_E_SG_EJEEESt16integer_sequenceImJLm7EEEE28__element_by_index_or_cookieILm7ESG_EEDcOT0_' type='func-type' binding='weak-binding' visibility='default-visibility' is-defined='yes'/>
    <elf-symbol name='_ZNSt8__detail9__variant17__gen_vtable_implINS0_12_Multi_arrayIPFNS0_21__deduce_visit_resultIvEEOZN2PJ3sdk11toAbiScalarERKSt7variantIJNS5_9NullValueENS6_9TypedNullEfdasilhtjmbSt17basic_string_viewIcSt11char_traitsIcEEEEEUlOT_E_SG_EJEEESt16integer_sequenceImJLm8EEEE14__visit_invokeESK_SG_' type='func-type' binding='weak-binding' visibility='default-visibility' is-defined='yes'/>
    <elf-symbol name='_ZNSt8__detail9__variant17__gen_vtable_implINS0_12_Multi_arrayIPFNS0_21__deduce_visit_resultIvEEOZN2PJ3sdk11toAbiScalarERKSt7variantIJNS5_9NullValueENS6_9TypedNullEfdasilhtjmbSt17basic_string_viewIcSt11char_traitsIcEEEEEUlOT_E_SG_EJEEESt16integer_sequenceImJLm8EEEE28__element_by_index_or_cookieILm8ESG_EEDcOT0_' type='func-type' binding='weak-binding' visibility='default-visibility' is-defined='yes'/>
    <elf-symbol name='_ZNSt8__detail9__variant17__gen_vtable_implINS0_12_Multi_arrayIPFNS0_21__deduce_visit_resultIvEEOZN2PJ3sdk11toAbiScalarERKSt7variantIJNS5_9NullValueENS6_9TypedNullEfdasilhtjmbSt17basic_string_viewIcSt11char_traitsIcEEEEEUlOT_E_SG_EJEEESt16integer_sequenceImJLm9EEEE14__visit_invokeESK_SG_' type='func-type' binding='weak-binding' visibility='default-visibility' is-defined='yes'/>
    <elf-symbol name='_ZNSt8__detail9__variant17__gen_vtable_implINS0_12_Multi_arrayIPFNS0_21__deduce_visit_resultIvEEOZN2PJ3sdk11toAbiScalarERKSt7variantIJNS5_9NullValueENS6_9TypedNullEfdasilhtjmbSt17basic_string_viewIcSt11char_traitsIcEEEEEUlOT_E_SG_EJEEESt16integer_sequenceImJLm9EEEE28__element_by_index_or_cookieILm9ESG_EEDcOT0_' type='func-type' binding='weak-binding' visibility='default-visibility' is-defined='yes'/>
    <elf-symbol name='_ZNSt8__detail9__variant17__gen_vtable_implINS0_12_Multi_arrayIPFvOZNS0_16_Variant_storageILb0EJ17PJ_topic_handle_tNSt7__cxx1112basic_stringIcSt11char_traitsIcESaIcEEEEE8_M_resetEvEUlOT_E_RSt7variantIJS4_SA_EEEJEEESt16integer_sequenceImJLm0EEEE14__visit_invokeESF_SI_' type='func-type' binding='weak-binding' visibility='default-visibility' is-defined='yes'/>
    <elf-symbol name='_ZNSt8__detail9__variant17__gen_vtable_implINS0_12_Multi_arrayIPFvOZNS0_16_Variant_storageILb0EJ17PJ_topic_handle_tNSt7__cxx1112basic_stringIcSt11char_traitsIcESaIcEEEEE8_M_resetEvEUlOT_E_RSt7variantIJS4_SA_EEEJEEESt16integer_sequenceImJLm1EEEE14__visit_invokeESF_SI_' type='func-type' binding='weak-binding' visibility='default-visibility' is-defined='yes'/>
    <elf-symbol name='_ZNSt8__detail9__variant17__gen_vtable_implINS0_12_Multi_arrayIPFvOZNS0_16_Variant_storageILb0EJ26PJ_parser_binding_handle_tNSt7__cxx1112basic_stringIcSt11char_traitsIcESaIcEEEEE8_M_resetEvEUlOT_E_RSt7variantIJS4_SA_EEEJEEESt16integer_sequenceImJLm0EEEE14__visit_invokeESF_SI_' type='func-type' binding='weak-binding' visibility='default-visibility' is-defined='yes'/>
    <elf-symbol name='_ZNSt8__detail9__variant17__gen_vtable_implINS0_12_Multi_arrayIPFvOZNS0_16_Variant_storageILb0EJ26PJ_parser_binding_handle_tNSt7__cxx1112basic_stringIcSt11char_traitsIcESaIcEEEEE8_M_resetEvEUlOT_E_RSt7variantIJS4_SA_EEEJEEESt16integer_sequenceImJLm1EEEE14__visit_invokeESF_SI_' type='func-type' binding='weak-binding' visibility='default-visibility' is-defined='yes'/>
    <elf-symbol name='_ZNSt8__detail9__variant17__gen_vtable_implINS0_12_Multi_arrayIPFvOZNS0_16_Variant_storageILb0EJN2PJ25DataSourceRuntimeHostViewENSt7__cxx1112basic_stringIcSt11char_traitsIcESaIcEEEEE8_M_resetEvEUlOT_E_RSt7variantIJS5_SB_EEEJEEESt16integer_sequenceImJLm0EEEE14__visit_invokeESG_SJ_' type='func-type' binding='weak-binding' visibility='default-visibility' is-defined='yes'/>
    <elf-symbol name='_ZNSt8__detail9__variant17__gen_vtable_implINS0_12_Multi_arrayIPFvOZNS0_16_Variant_storageILb0EJN2PJ25DataSourceRuntimeHostViewENSt7__cxx1112basic_stringIcSt11char_traitsIcESaIcEEEEE8_M_resetEvEUlOT_E_RSt7variantIJS5_SB_EEEJEEESt16integer_sequenceImJLm1EEEE14__visit_invokeESG_SJ_' type='func-type' binding='weak-binding' visibility='default-visibility' is-defined='yes'/>
    <elf-symbol name='_ZNSt8__detail9__variant17__gen_vtable_implINS0_12_Multi_arrayIPFvOZNS0_16_Variant_storageILb0EJN2PJ3sdk19SourceWriteHostViewENSt7__cxx1112basic_stringIcSt11char_traitsIcESaIcEEEEE8_M_resetEvEUlOT_E_RSt7variantIJS6_SC_EEEJEEESt16integer_sequenceImJLm0EEEE14__visit_invokeESH_SK_' type='func-type' binding='weak-binding' visibility='default-visibility' is-defined='yes'/>
    <elf-symbol name='_ZNSt8__detail9__variant17__gen_vtable_implINS0_12_Multi_arrayIPFvOZNS0_16_Variant_storageILb0EJN2PJ3sdk19SourceWriteHostViewENSt7__cxx1112basic_stringIcSt11char_traitsIcESaIcEEEEE8_M_resetEvEUlOT_E_RSt7variantIJS6_SC_EEEJEEESt16integer_sequenceImJLm1EEEE14__visit_invokeESH_SK_' type='func-type' binding='weak-binding' visibility='default-visibility' is-defined='yes'/>
    <elf-symbol name='_ZNSt8__detail9__variant4__asIJN2PJ9NullValueENS2_3sdk9TypedNullEfdasilhtjmbSt17basic_string_viewIcSt11char_traitsIcEEEEERKSt7variantIJDpT_EESF_' type='func-type' binding='weak-binding' visibility='default-visibility' is-defined='yes'/>
    <elf-symbol name='_ZNSt8__detail9__variant5__getILm0ERKSt7variantIJN2PJ9NullValueENS3_3sdk9TypedNullEfdasilhtjmbSt17basic_string_viewIcSt11char_traitsIcEEEEEEDcOT0_' type='func-type' binding='weak-binding' visibility='default-visibility' is-defined='yes'/>
    <elf-symbol name='_ZNSt8__detail9__variant5__getILm0ERSt7variantIJ17PJ_topic_handle_tNSt7__cxx1112basic_stringIcSt11char_traitsIcESaIcEEEEEEEDcOT0_' type='func-type' binding='weak-binding' visibility='default-visibility' is-defined='yes'/>
    <elf-symbol name='_ZNSt8__detail9__variant5__getILm0ERSt7variantIJ26PJ_parser_binding_handle_tNSt7__cxx1112basic_stringIcSt11char_traitsIcESaIcEEEEEEEDcOT0_' type='func-type' binding='weak-binding' visibility='default-visibility' is-defined='yes'/>
    <elf-symbol name='_ZNSt8__detail9__variant5__getILm0ERSt7variantIJN2PJ25DataSourceRuntimeHostViewENSt7__cxx1112basic_stringIcSt11char_traitsIcESaIcEEEEEEEDcOT0_' type='func-type' binding='weak-binding' visibility='default-visibility' is-defined='yes'/>
    <elf-symbol name='_ZNSt8__detail9__variant5__getILm0ERSt7variantIJN2PJ3sdk19SourceWriteHostViewENSt7__cxx1112basic_stringIcSt11char_traitsIcESaIcEEEEEEEDcOT0_' type='func-type' binding='weak-binding' visibility='default-visibility' is-defined='yes'/>
    <elf-symbol name='_ZNSt8__detail9__variant5__getILm10ERKNS0_15_Variadic_unionIJN2PJ3sdk9TypedNullEfdasilhtjmbSt17basic_string_viewIcSt11char_traitsIcEEEEEEEDcSt16in_place_index_tIXT_EEOT0_' type='func-type' binding='weak-binding' visibility='default-visibility' is-defined='yes'/>
    <elf-symbol name='_ZNSt8__detail9__variant5__getILm10ERKNS0_15_Variadic_unionIJN2PJ9NullValueENS3_3sdk9TypedNullEfdasilhtjmbSt17basic_string_viewIcSt11char_traitsIcEEEEEEEDcSt16in_place_index_tIXT_EEOT0_' type='func-type' binding='weak-binding' visibility='default-visibility' is-defined='yes'/>
    <elf-symbol name='_ZNSt8__detail9__variant5__getILm10ERKNS0_15_Variadic_unionIJdasilhtjmbSt17basic_string_viewIcSt11char_traitsIcEEEEEEEDcSt16in_place_index_tIXT_EEOT0_' type='func-type' binding='weak-binding' visibility='default-visibility' is-defined='yes'/>
    <elf-symbol name='_ZNSt8__detail9__variant5__getILm10ERKNS0_15_Variadic_unionIJfdasilhtjmbSt17basic_string_viewIcSt11char_traitsIcEEEEEEEDcSt16in_place_index_tIXT_EEOT0_' type='func-type' binding='weak-binding' visibility='default-visibility' is-defined='yes'/>
    <elf-symbol name='_ZNSt8__detail9__variant5__getILm10ERKSt7variantIJN2PJ9NullValueENS3_3sdk9TypedNullEfdasilhtjmbSt17basic_string_viewIcSt11char_traitsIcEEEEEEDcOT0_' type='func-type' binding='weak-binding' visibility='default-visibility' is-defined='yes'/>
    <elf-symbol name='_ZNSt8__detail9__variant5__getILm11ERKNS0_15_Variadic_unionIJN2PJ3sdk9TypedNullEfdasilhtjmbSt17basic_string_viewIcSt11char_traitsIcEEEEEEEDcSt16in_place_index_tIXT_EEOT0_' type='func-type' binding='weak-binding' visibility='default-visibility' is-defined='yes'/>
    <elf-symbol name='_ZNSt8__detail9__variant5__getILm11ERKNS0_15_Variadic_unionIJN2PJ9NullValueENS3_3sdk9TypedNullEfdasilhtjmbSt17basic_string_viewIcSt11char_traitsIcEEEEEEEDcSt16in_place_index_tIXT_EEOT0_' type='func-type' binding='weak-binding' visibility='default-visibility' is-defined='yes'/>
    <elf-symbol name='_ZNSt8__detail9__variant5__getILm11ERKNS0_15_Variadic_unionIJfdasilhtjmbSt17basic_string_viewIcSt11char_traitsIcEEEEEEEDcSt16in_place_index_tIXT_EEOT0_' type='func-type' binding='weak-binding' visibility='default-visibility' is-defined='yes'/>
    <elf-symbol name='_ZNSt8__detail9__variant5__getILm11ERKSt7variantIJN2PJ9NullValueENS3_3sdk9TypedNullEfdasilhtjmbSt17basic_string_viewIcSt11char_traitsIcEEEEEEDcOT0_' type='func-type' binding='weak-binding' visibility='default-visibility' is-defined='yes'/>
    <elf-symbol name='_ZNSt8__detail9__variant5__getILm12ERKNS0_15_Variadic_unionIJN2PJ3sdk9TypedNullEfdasilhtjmbSt17basic_string_viewIcSt11char_traitsIcEEEEEEEDcSt16in_place_index_tIXT_EEOT0_' type='func-type' binding='weak-binding' visibility='default-visibility' is-defined='yes'/>
    <elf-symbol name='_ZNSt8__detail9__variant5__getILm12ERKNS0_15_Variadic_unionIJN2PJ9NullValueENS3_3sdk9TypedNullEfdasilhtjmbSt17basic_string_viewIcSt11char_traitsIcEEEEEEEDcSt16in_place_index_tIXT_EEOT0_' type='func-type' binding='weak-binding' visibility='default-visibility' is-defined='yes'/>
    <elf-symbol name='_ZNSt8__detail9__variant5__getILm12ERKSt7variantIJN2PJ9NullValueENS3_3sdk9TypedNullEfdasilhtjmbSt17basic_string_viewIcSt11char_traitsIcEEEEEEDcOT0_' type='func-type' binding='weak-binding' visibility='default-visibility' is-defined='yes'/>
    <elf-symbol name='_ZNSt8__detail9__variant5__getILm13ERKNS0_15_Variadic_unionIJN2PJ9NullValueENS3_3sdk9TypedNullEfdasilhtjmbSt17basic_string_viewIcSt11char_traitsIcEEEEEEEDcSt16in_place_index_tIXT_EEOT0_' type='func-type' binding='weak-binding' visibility='default-visibility' is-defined='yes'/>
    <elf-symbol name='_ZNSt8__detail9__variant5__getILm13ERKSt7variantIJN2PJ9NullValueENS3_3sdk9TypedNullEfdasilhtjmbSt17basic_string_viewIcSt11char_traitsIcEEEEEEDcOT0_' type='func-type' binding='weak-binding' visibility='default-visibility' is-defined='yes'/>
    <elf-symbol name='_ZNSt8__detail9__variant5__getILm1ERKNS0_15_Variadic_unionIJN2PJ3sdk9TypedNullEfdasilhtjmbSt17basic_string_viewIcSt11char_traitsIcEEEEEEEDcSt16in_place_index_tIXT_EEOT0_' type='func-type' binding='weak-binding' visibility='default-visibility' is-defined='yes'/>
    <elf-symbol name='_ZNSt8__detail9__variant5__getILm1ERKNS0_15_Variadic_unionIJN2PJ9NullValueENS3_3sdk9TypedNullEfdasilhtjmbSt17basic_string_viewIcSt11char_traitsIcEEEEEEEDcSt16in_place_index_tIXT_EEOT0_' type='func-type' binding='weak-binding' visibility='default-visibility' is-defined='yes'/>
    <elf-symbol name='_ZNSt8__detail9__variant5__getILm1ERKNS0_15_Variadic_unionIJasilhtjmbSt17basic_string_viewIcSt11char_traitsIcEEEEEEEDcSt16in_place_index_tIXT_EEOT0_' type='func-type' binding='weak-binding' visibility='default-visibility' is-defined='yes'/>
    <elf-symbol name='_ZNSt8__detail9__variant5__getILm1ERKNS0_15_Variadic_unionIJbSt17basic_string_viewIcSt11char_traitsIcEEEEEEEDcSt16in_place_index_tIXT_EEOT0_' type='func-type' binding='weak-binding' visibility='default-visibility' is-defined='yes'/>
    <elf-symbol name='_ZNSt8__detail9__variant5__getILm1ERKNS0_15_Variadic_unionIJdasilhtjmbSt17basic_string_viewIcSt11char_traitsIcEEEEEEEDcSt16in_place_index_tIXT_EEOT0_' type='func-type' binding='weak-binding' visibility='default-visibility' is-defined='yes'/>
    <elf-symbol name='_ZNSt8__detail9__variant5__getILm1ERKNS0_15_Variadic_unionIJfdasilhtjmbSt17basic_string_viewIcSt11char_traitsIcEEEEEEEDcSt16in_place_index_tIXT_EEOT0_' type='func-type' binding='weak-binding' visibility='default-visibility' is-defined='yes'/>
    <elf-symbol name='_ZNSt8__detail9__variant5__getILm1ERKNS0_15_Variadic_unionIJhtjmbSt17basic_string_viewIcSt11char_traitsIcEEEEEEEDcSt16in_place_index_tIXT_EEOT0_' type='func-type' binding='weak-binding' visibility='default-visibility' is-defined='yes'/>
    <elf-symbol name='_ZNSt8__detail9__variant5__getILm1ERKNS0_15_Variadic_unionIJilhtjmbSt17basic_string_viewIcSt11char_traitsIcEEEEEEEDcSt16in_place_index_tIXT_EEOT0_' type='func-type' binding='weak-binding' visibility='default-visibility' is-defined='yes'/>
    <elf-symbol name='_ZNSt8__detail9__variant5__getILm1ERKNS0_15_Variadic_unionIJjmbSt17basic_string_viewIcSt11char_traitsIcEEEEEEEDcSt16in_place_index_tIXT_EEOT0_' type='func-type' binding='weak-binding' visibility='default-visibility' is-defined='yes'/>
    <elf-symbol name='_ZNSt8__detail9__variant5__getILm1ERKNS0_15_Variadic_unionIJlhtjmbSt17basic_string_viewIcSt11char_traitsIcEEEEEEEDcSt16in_place_index_tIXT_EEOT0_' type='func-type' binding='weak-binding' visibility='default-visibility' is-defined='yes'/>
    <elf-symbol name='_ZNSt8__detail9__variant5__getILm1ERKNS0_15_Variadic_unionIJmbSt17basic_string_viewIcSt11char_traitsIcEEEEEEEDcSt16in_place_index_tIXT_EEOT0_' type='func-type' binding='weak-binding' visibility='default-visibility' is-defined='yes'/>
    <elf-symbol name='_ZNSt8__detail9__variant5__getILm1ERKNS0_15_Variadic_unionIJsilhtjmbSt17basic_string_viewIcSt11char_traitsIcEEEEEEEDcSt16in_place_index_tIXT_EEOT0_' type='func-type' binding='weak-binding' visibility='default-visibility' is-defined='yes'/>
    <elf-symbol name='_ZNSt8__detail9__variant5__getILm1ERKNS0_15_Variadic_unionIJtjmbSt17basic_string_viewIcSt11char_traitsIcEEEEEEEDcSt16in_place_index_tIXT_EEOT0_' type='func-type' binding='weak-binding' visibility='default-visibility' is-defined='yes'/>
    <elf-symbol name='_ZNSt8__detail9__variant5__getILm1ERKSt7variantIJN2PJ9NullValueENS3_3sdk9TypedNullEfdasilhtjmbSt17basic_string_viewIcSt11char_traitsIcEEEEEEDcOT0_' type='func-type' binding='weak-binding' visibility='default-visibility' is-defined='yes'/>
    <elf-symbol name='_ZNSt8__detail9__variant5__getILm1ERNS0_15_Variadic_unionIJ17PJ_topic_handle_tNSt7__cxx1112basic_stringIcSt11char_traitsIcESaIcEEEEEEEEDcSt16in_place_index_tIXT_EEOT0_' type='func-type' binding='weak-binding' visibility='default-visibility' is-defined='yes'/>
    <elf-symbol name='_ZNSt8__detail9__variant5__getILm1ERNS0_15_Variadic_unionIJ26PJ_parser_binding_handle_tNSt7__cxx1112basic_stringIcSt11char_traitsIcESaIcEEEEEEEEDcSt16in_place_index_tIXT_EEOT0_' type='func-type' binding='weak-binding' visibility='default-visibility' is-defined='yes'/>
    <elf-symbol name='_ZNSt8__detail9__variant5__getILm1ERNS0_15_Variadic_unionIJN2PJ25DataSourceRuntimeHostViewENSt7__cxx1112basic_stringIcSt11char_traitsIcESaIcEEEEEEEEDcSt16in_place_index_tIXT_EEOT0_' type='func-type' binding='weak-binding' visibility='default-visibility' is-defined='yes'/>
    <elf-symbol name='_ZNSt8__detail9__variant5__getILm1ERNS0_15_Variadic_unionIJN2PJ3sdk19SourceWriteHostViewENSt7__cxx1112basic_stringIcSt11char_traitsIcESaIcEEEEEEEEDcSt16in_place_index_tIXT_EEOT0_' type='func-type' binding='weak-binding' visibility='default-visibility' is-defined='yes'/>
    <elf-symbol name='_ZNSt8__detail9__variant5__getILm1ERSt7variantIJ17PJ_topic_handle_tNSt7__cxx1112basic_stringIcSt11char_traitsIcESaIcEEEEEEEDcOT0_' type='func-type' binding='weak-binding' visibility='default-visibility' is-defined='yes'/>
    <elf-symbol name='_ZNSt8__detail9__variant5__getILm1ERSt7variantIJ26PJ_parser_binding_handle_tNSt7__cxx1112basic_stringIcSt11char_traitsIcESaIcEEEEEEEDcOT0_' type='func-type' binding='weak-binding' visibility='default-visibility' is-defined='yes'/>
    <elf-symbol name='_ZNSt8__detail9__variant5__getILm1ERSt7variantIJN2PJ25DataSourceRuntimeHostViewENSt7__cxx1112basic_stringIcSt11char_traitsIcESaIcEEEEEEEDcOT0_' type='func-type' binding='weak-binding' visibility='default-visibility' is-defined='yes'/>
    <elf-symbol name='_ZNSt8__detail9__variant5__getILm1ERSt7variantIJN2PJ3sdk19SourceWriteHostViewENSt7__cxx1112basic_stringIcSt11char_traitsIcESaIcEEEEEEEDcOT0_' type='func-type' binding='weak-binding' visibility='default-visibility' is-defined='yes'/>
    <elf-symbol name='_ZNSt8__detail9__variant5__getILm2ERKNS0_15_Variadic_unionIJN2PJ3sdk9TypedNullEfdasilhtjmbSt17basic_string_viewIcSt11char_traitsIcEEEEEEEDcSt16in_place_index_tIXT_EEOT0_' type='func-type' binding='weak-binding' visibility='default-visibility' is-defined='yes'/>
    <elf-symbol name='_ZNSt8__detail9__variant5__getILm2ERKNS0_15_Variadic_unionIJN2PJ9NullValueENS3_3sdk9TypedNullEfdasilhtjmbSt17basic_string_viewIcSt11char_traitsIcEEEEEEEDcSt16in_place_index_tIXT_EEOT0_' type='func-type' binding='weak-binding' visibility='default-visibility' is-defined='yes'/>
    <elf-symbol name='_ZNSt8__detail9__variant5__getILm2ERKNS0_15_Variadic_unionIJasilhtjmbSt17basic_string_viewIcSt11char_traitsIcEEEEEEEDcSt16in_place_index_tIXT_EEOT0_' type='func-type' binding='weak-binding' visibility='default-visibility' is-defined='yes'/>
    <elf-symbol name='_ZNSt8__detail9__variant5__getILm2ERKNS0_15_Variadic_unionIJdasilhtjmbSt17basic_string_viewIcSt11char_traitsIcEEEEEEEDcSt16in_place_index_tIXT_EEOT0_' type='func-type' binding='weak-binding' visibility='default-visibility' is-defined='yes'/>
    <elf-symbol name='_ZNSt8__detail9__variant5__getILm2ERKNS0_15_Variadic_unionIJfdasilhtjmbSt17basic_string_viewIcSt11char_traitsIcEEEEEEEDcSt16in_place_index_tIXT_EEOT0_' type='func-type' binding='weak-binding' visibility='default-visibility' is-defined='yes'/>
    <elf-symbol name='_ZNSt8__detail9__variant5__getILm2ERKNS0_15_Variadic_unionIJhtjmbSt17basic_string_viewIcSt11char_traitsIcEEEEEEEDcSt16in_place_index_tIXT_EEOT0_' type='func-type' binding='weak-binding' visibility='default-visibility' is-defined='yes'/>
    <elf-symbol name='_ZNSt8__detail9__variant5__getILm2ERKNS0_15_Variadic_unionIJilhtjmbSt17basic_string_viewIcSt11char_traitsIcEEEEEEEDcSt16in_place_index_tIXT_EEOT0_' type='func-type' binding='weak-binding' visibility='default-visibility' is-defined='yes'/>
    <elf-symbol name='_ZNSt8__detail9__variant5__getILm2ERKNS0_15_Variadic_unionIJjmbSt17basic_string_viewIcSt11char_traitsIcEEEEEEEDcSt16in_place_index_tIXT_EEOT0_' type='func-type' binding='weak-binding' visibility='default-visibility' is-defined='yes'/>
    <elf-symbol name='_ZNSt8__detail9__variant5__getILm2ERKNS0_15_Variadic_unionIJlhtjmbSt17basic_string_viewIcSt11char_traitsIcEEEEEEEDcSt16in_place_index_tIXT_EEOT0_' type='func-type' binding='weak-binding' visibility='default-visibility' is-defined='yes'/>
    <elf-symbol name='_ZNSt8__detail9__variant5__getILm2ERKNS0_15_Variadic_unionIJmbSt17basic_string_viewIcSt11char_traitsIcEEEEEEEDcSt16in_place_index_tIXT_EEOT0_' type='func-type' binding='weak-binding' visibility='default-visibility' is-defined='yes'/>
    <elf-symbol name='_ZNSt8__detail9__variant5__getILm2ERKNS0_15_Variadic_unionIJsilhtjmbSt17basic_string_viewIcSt11char_traitsIcEEEEEEEDcSt16in_place_index_tIXT_EEOT0_' type='func-type' binding='weak-binding' visibility='default-visibility' is-defined='yes'/>
    <elf-symbol name='_ZNSt8__detail9__variant5__getILm2ERKNS0_15_Variadic_unionIJtjmbSt17basic_string_viewIcSt11char_traitsIcEEEEEEEDcSt16in_place_index_tIXT_EEOT0_' type='func-type' binding='weak-binding' visibility='default-visibility' is-defined='yes'/>
    <elf-symbol name='_ZNSt8__detail9__variant5__getILm2ERKSt7variantIJN2PJ9NullValueENS3_3sdk9TypedNullEfdasilhtjmbSt17basic_string_viewIcSt11char_traitsIcEEEEEEDcOT0_' type='func-type' binding='weak-binding' visibility='default-visibility' is-defined='yes'/>
    <elf-symbol name='_ZNSt8__detail9__variant5__getILm3ERKNS0_15_Variadic_unionIJN2PJ3sdk9TypedNullEfdasilhtjmbSt17basic_string_viewIcSt11char_traitsIcEEEEEEEDcSt16in_place_index_tIXT_EEOT0_' type='func-type' binding='weak-binding' visibility='default-visibility' is-defined='yes'/>
    <elf-symbol name='_ZNSt8__detail9__variant5__getILm3ERKNS0_15_Variadic_unionIJN2PJ9NullValueENS3_3sdk9TypedNullEfdasilhtjmbSt17basic_string_viewIcSt11char_traitsIcEEEEEEEDcSt16in_place_index_tIXT_EEOT0_' type='func-type' binding='weak-binding' visibility='default-visibility' is-defined='yes'/>
    <elf-symbol name='_ZNSt8__detail9__variant5__getILm3ERKNS0_15_Variadic_unionIJasilhtjmbSt17basic_string_viewIcSt11char_traitsIcEEEEEEEDcSt16in_place_index_tIXT_EEOT0_' type='func-type' binding='weak-binding' visibility='default-visibility' is-defined='yes'/>
    <elf-symbol name='_ZNSt8__detail9__variant5__getILm3ERKNS0_15_Variadic_unionIJdasilhtjmbSt17basic_string_viewIcSt11char_traitsIcEEEEEEEDcSt16in_place_index_tIXT_EEOT0_' type='func-type' binding='weak-binding' visibility='default-visibility' is-defined='yes'/>
    <elf-symbol name='_ZNSt8__detail9__variant5__getILm3ERKNS0_15_Variadic_unionIJfdasilhtjmbSt17basic_string_viewIcSt11char_traitsIcEEEEEEEDcSt16in_place_index_tIXT_EEOT0_' type='func-type' binding='weak-binding' visibility='default-visibility' is-defined='yes'/>
    <elf-symbol name='_ZNSt8__detail9__variant5__getILm3ERKNS0_15_Variadic_unionIJhtjmbSt17basic_string_viewIcSt11char_traitsIcEEEEEEEDcSt16in_place_index_tIXT_EEOT0_' type='func-type' binding='weak-binding' visibility='default-visibility' is-defined='yes'/>
    <elf-symbol name='_ZNSt8__detail9__variant5__getILm3ERKNS0_15_Variadic_unionIJilhtjmbSt17basic_string_viewIcSt11char_traitsIcEEEEEEEDcSt16in_place_index_tIXT_EEOT0_' type='func-type' binding='weak-binding' visibility='default-visibility' is-defined='yes'/>
    <elf-symbol name='_ZNSt8__detail9__variant5__getILm3ERKNS0_15_Variadic_unionIJjmbSt17basic_string_viewIcSt11char_traitsIcEEEEEEEDcSt16in_place_index_tIXT_EEOT0_' type='func-type' binding='weak-binding' visibility='default-visibility' is-defined='yes'/>
    <elf-symbol name='_ZNSt8__detail9__variant5__getILm3ERKNS0_15_Variadic_unionIJlhtjmbSt17basic_string_viewIcSt11char_traitsIcEEEEEEEDcSt16in_place_index_tIXT_EEOT0_' type='func-type' binding='weak-binding' visibility='default-visibility' is-defined='yes'/>
    <elf-symbol name='_ZNSt8__detail9__variant5__getILm3ERKNS0_15_Variadic_unionIJsilhtjmbSt17basic_string_viewIcSt11char_traitsIcEEEEEEEDcSt16in_place_index_tIXT_EEOT0_' type='func-type' binding='weak-binding' visibility='default-visibility' is-defined='yes'/>
    <elf-symbol name='_ZNSt8__detail9__variant5__getILm3ERKNS0_15_Variadic_unionIJtjmbSt17basic_string_viewIcSt11char_traitsIcEEEEEEEDcSt16in_place_index_tIXT_EEOT0_' type='func-type' binding='weak-binding' visibility='default-visibility' is-defined='yes'/>
    <elf-symbol name='_ZNSt8__detail9__variant5__getILm3ERKSt7variantIJN2PJ9NullValueENS3_3sdk9TypedNullEfdasilhtjmbSt17basic_string_viewIcSt11char_traitsIcEEEEEEDcOT0_' type='func-type' binding='weak-binding' visibility='default-visibility' is-defined='yes'/>
    <elf-symbol name='_ZNSt8__detail9__variant5__getILm4ERKNS0_15_Variadic_unionIJN2PJ3sdk9TypedNullEfdasilhtjmbSt17basic_string_viewIcSt11char_traitsIcEEEEEEEDcSt16in_place_index_tIXT_EEOT0_' type='func-type' binding='weak-binding' visibility='default-visibility' is-defined='yes'/>
    <elf-symbol name='_ZNSt8__detail9__variant5__getILm4ERKNS0_15_Variadic_unionIJN2PJ9NullValueENS3_3sdk9TypedNullEfdasilhtjmbSt17basic_string_viewIcSt11char_traitsIcEEEEEEEDcSt16in_place_index_tIXT_EEOT0_' type='func-type' binding='weak-binding' visibility='default-visibility' is-defined='yes'/>
    <elf-symbol name='_ZNSt8__detail9__variant5__getILm4ERKNS0_15_Variadic_unionIJasilhtjmbSt17basic_string_viewIcSt11char_traitsIcEEEEEEEDcSt16in_place_index_tIXT_EEOT0_' type='func-type' binding='weak-binding' visibility='default-visibility' is-defined='yes'/>
    <elf-symbol name='_ZNSt8__detail9__variant5__getILm4ERKNS0_15_Variadic_unionIJdasilhtjmbSt17basic_string_viewIcSt11char_traitsIcEEEEEEEDcSt16in_place_index_tIXT_EEOT0_' type='func-type' binding='weak-binding' visibility='default-visibility' is-defined='yes'/>
    <elf-symbol name='_ZNSt8__detail9__variant5__getILm4ERKNS0_15_Variadic_unionIJfdasilhtjmbSt17basic_string_viewIcSt11char_traitsIcEEEEEEEDcSt16in_place_index_tIXT_EEOT0_' type='func-type' binding='weak-binding' visibility='default-visibility' is-defined='yes'/>
    <elf-symbol name='_ZNSt8__detail9__variant5__getILm4ERKNS0_15_Variadic_unionIJhtjmbSt17basic_string_viewIcSt11char_traitsIcEEEEEEEDcSt16in_place_index_tIXT_EEOT0_' type='func-type' binding='weak-binding' visibility='default-visibility' is-defined='yes'/>
    <elf-symbol name='_ZNSt8__detail9__variant5__getILm4ERKNS0_15_Variadic_unionIJilhtjmbSt17basic_string_viewIcSt11char_traitsIcEEEEEEEDcSt16in_place_index_tIXT_EEOT0_' type='func-type' binding='weak-binding' visibility='default-visibility' is-defined='yes'/>
    <elf-symbol name='_ZNSt8__detail9__variant5__getILm4ERKNS0_15_Variadic_unionIJlhtjmbSt17basic_string_viewIcSt11char_traitsIcEEEEEEEDcSt16in_place_index_tIXT_EEOT0_' type='func-type' binding='weak-binding' visibility='default-visibility' is-defined='yes'/>
    <elf-symbol name='_ZNSt8__detail9__variant5__getILm4ERKNS0_15_Variadic_unionIJsilhtjmbSt17basic_string_viewIcSt11char_traitsIcEEEEEEEDcSt16in_place_index_tIXT_EEOT0_' type='func-type' binding='weak-binding' visibility='default-visibility' is-defined='yes'/>
    <elf-symbol name='_ZNSt8__detail9__variant5__getILm4ERKNS0_15_Variadic_unionIJtjmbSt17basic_string_viewIcSt11char_traitsIcEEEEEEEDcSt16in_place_index_tIXT_EEOT0_' type='func-type' binding='weak-binding' visibility='default-visibility' is-defined='yes'/>
    <elf-symbol name='_ZNSt8__detail9__variant5__getILm4ERKSt7variantIJN2PJ9NullValueENS3_3sdk9TypedNullEfdasilhtjmbSt17basic_string_viewIcSt11char_traitsIcEEEEEEDcOT0_' type='func-type' binding='weak-binding' visibility='default-visibility' is-defined='yes'/>
    <elf-symbol name='_ZNSt8__detail9__variant5__getILm5ERKNS0_15_Variadic_unionIJN2PJ3sdk9TypedNullEfdasilhtjmbSt17basic_string_viewIcSt11char_traitsIcEEEEEEEDcSt16in_place_index_tIXT_EEOT0_' type='func-type' binding='weak-binding' visibility='default-visibility' is-defined='yes'/>
    <elf-symbol name='_ZNSt8__detail9__variant5__getILm5ERKNS0_15_Variadic_unionIJN2PJ9NullValueENS3_3sdk9TypedNullEfdasilhtjmbSt17basic_string_viewIcSt11char_traitsIcEEEEEEEDcSt16in_place_index_tIXT_EEOT0_' type='func-type' binding='weak-binding' visibility='default-visibility' is-defined='yes'/>
    <elf-symbol name='_ZNSt8__detail9__variant5__getILm5ERKNS0_15_Variadic_unionIJasilhtjmbSt17basic_string_viewIcSt11char_traitsIcEEEEEEEDcSt16in_place_index_tIXT_EEOT0_' type='func-type' binding='weak-binding' visibility='default-visibility' is-defined='yes'/>
    <elf-symbol name='_ZNSt8__detail9__variant5__getILm5ERKNS0_15_Variadic_unionIJdasilhtjmbSt17basic_string_viewIcSt11char_traitsIcEEEEEEEDcSt16in_place_index_tIXT_EEOT0_' type='func-type' binding='weak-binding' visibility='default-visibility' is-defined='yes'/>
    <elf-symbol name='_ZNSt8__detail9__variant5__getILm5ERKNS0_15_Variadic_unionIJfdasilhtjmbSt17basic_string_viewIcSt11char_traitsIcEEEEEEEDcSt16in_place_index_tIXT_EEOT0_' type='func-type' binding='weak-binding' visibility='default-visibility' is-defined='yes'/>
    <elf-symbol name='_ZNSt8__detail9__variant5__getILm5ERKNS0_15_Variadic_unionIJhtjmbSt17basic_string_viewIcSt11char_traitsIcEEEEEEEDcSt16in_place_index_tIXT_EEOT0_' type='func-type' binding='weak-binding' visibility='default-visibility' is-defined='yes'/>
    <elf-symbol name='_ZNSt8__detail9__variant5__getILm5ERKNS0_15_Variadic_unionIJilhtjmbSt17basic_string_viewIcSt11char_traitsIcEEEEEEEDcSt16in_place_index_tIXT_EEOT0_' type='func-type' binding='weak-binding' visibility='default-visibility' is-defined='yes'/>
    <elf-symbol name='_ZNSt8__detail9__variant5__getILm5ERKNS0_15_Variadic_unionIJlhtjmbSt17basic_string_viewIcSt11char_traitsIcEEEEEEEDcSt16in_place_index_tIXT_EEOT0_' type='func-type' binding='weak-binding' visibility='default-visibility' is-defined='yes'/>
    <elf-symbol name='_ZNSt8__detail9__variant5__getILm5ERKNS0_15_Variadic_unionIJsilhtjmbSt17basic_string_viewIcSt11char_traitsIcEEEEEEEDcSt16in_place_index_tIXT_EEOT0_' type='func-type' binding='weak-binding' visibility='default-visibility' is-defined='yes'/>
    <elf-symbol name='_ZNSt8__detail9__variant5__getILm5ERKSt7variantIJN2PJ9NullValueENS3_3sdk9TypedNullEfdasilhtjmbSt17basic_string_viewIcSt11char_traitsIcEEEEEEDcOT0_' type='func-type' binding='weak-binding' visibility='default-visibility' is-defined='yes'/>
    <elf-symbol name='_ZNSt8__detail9__variant5__getILm6ERKNS0_15_Variadic_unionIJN2PJ3sdk9TypedNullEfdasilhtjmbSt17basic_string_viewIcSt11char_traitsIcEEEEEEEDcSt16in_place_index_tIXT_EEOT0_' type='func-type' binding='weak-binding' visibility='default-visibility' is-defined='yes'/>
    <elf-symbol name='_ZNSt8__detail9__variant5__getILm6ERKNS0_15_Variadic_unionIJN2PJ9NullValueENS3_3sdk9TypedNullEfdasilhtjmbSt17basic_string_viewIcSt11char_traitsIcEEEEEEEDcSt16in_place_index_tIXT_EEOT0_' type='func-type' binding='weak-binding' visibility='default-visibility' is-defined='yes'/>
    <elf-symbol name='_ZNSt8__detail9__variant5__getILm6ERKNS0_15_Variadic_unionIJasilhtjmbSt17basic_string_viewIcSt11char_traitsIcEEEEEEEDcSt16in_place_index_tIXT_EEOT0_' type='func-type' binding='weak-binding' visibility='default-visibility' is-defined='yes'/>
    <elf-symbol name='_ZNSt8__detail9__variant5__getILm6ERKNS0_15_Variadic_unionIJdasilhtjmbSt17basic_string_viewIcSt11char_traitsIcEEEEEEEDcSt16in_place_index_tIXT_EEOT0_' type='func-type' binding='weak-binding' visibility='default-visibility' is-defined='yes'/>
    <elf-symbol name='_ZNSt8__detail9__variant5__getILm6ERKNS0_15_Variadic_unionIJfdasilhtjmbSt17basic_string_viewIcSt11char_traitsIcEEEEEEEDcSt16in_place_index_tIXT_EEOT0_' type='func-type' binding='weak-binding' visibility='default-visibility' is-defined='yes'/>
    <elf-symbol name='_ZNSt8__detail9__variant5__getILm6ERKNS0_15_Variadic_unionIJilhtjmbSt17basic_string_viewIcSt11char_traitsIcEEEEEEEDcSt16in_place_index_tIXT_EEOT0_' type='func-type' binding='weak-binding' visibility='default-visibility' is-defined='yes'/>
    <elf-symbol name='_ZNSt8__detail9__variant5__getILm6ERKNS0_15_Variadic_unionIJlhtjmbSt17basic_string_viewIcSt11char_traitsIcEEEEEEEDcSt16in_place_index_tIXT_EEOT0_' type='func-type' binding='weak-binding' visibility='default-visibility' is-defined='yes'/>
    <elf-symbol name='_ZNSt8__detail9__variant5__getILm6ERKNS0_15_Variadic_unionIJsilhtjmbSt17basic_string_viewIcSt11char_traitsIcEEEEEEEDcSt16in_place_index_tIXT_EEOT0_' type='func-type' binding='weak-binding' visibility='default-visibility' is-defined='yes'/>
    <elf-symbol name='_ZNSt8__detail9__variant5__getILm6ERKSt7variantIJN2PJ9NullValueENS3_3sdk9TypedNullEfdasilhtjmbSt17basic_string_viewIcSt11char_traitsIcEEEEEEDcOT0_' type='func-type' binding='weak-binding' visibility='default-visibility' is-defined='yes'/>
    <elf-symbol name='_ZNSt8__detail9__variant5__getILm7ERKNS0_15_Variadic_unionIJN2PJ3sdk9TypedNullEfdasilhtjmbSt17basic_string_viewIcSt11char_traitsIcEEEEEEEDcSt16in_place_index_tIXT_EEOT0_' type='func-type' binding='weak-binding' visibility='default-visibility' is-defined='yes'/>
    <elf-symbol name='_ZNSt8__detail9__variant5__getILm7ERKNS0_15_Variadic_unionIJN2PJ9NullValueENS3_3sdk9TypedNullEfdasilhtjmbSt17basic_string_viewIcSt11char_traitsIcEEEEEEEDcSt16in_place_index_tIXT_EEOT0_' type='func-type' binding='weak-binding' visibility='default-visibility' is-defined='yes'/>
    <elf-symbol name='_ZNSt8__detail9__variant5__getILm7ERKNS0_15_Variadic_unionIJasilhtjmbSt17basic_string_viewIcSt11char_traitsIcEEEEEEEDcSt16in_place_index_tIXT_EEOT0_' type='func-type' binding='weak-binding' visibility='default-visibility' is-defined='yes'/>
    <elf-symbol name='_ZNSt8__detail9__variant5__getILm7ERKNS0_15_Variadic_unionIJdasilhtjmbSt17basic_string_viewIcSt11char_traitsIcEEEEEEEDcSt16in_place_index_tIXT_EEOT0_' type='func-type' binding='weak-binding' visibility='default-visibility' is-defined='yes'/>
    <elf-symbol name='_ZNSt8__detail9__variant5__getILm7ERKNS0_15_Variadic_unionIJfdasilhtjmbSt17basic_string_viewIcSt11char_traitsIcEEEEEEEDcSt16in_place_index_tIXT_EEOT0_' type='func-type' binding='weak-binding' visibility='default-visibility' is-defined='yes'/>
    <elf-symbol name='_ZNSt8__detail9__variant5__getILm7ERKNS0_15_Variadic_unionIJilhtjmbSt17basic_string_viewIcSt11char_traitsIcEEEEEEEDcSt16in_place_index_tIXT_EEOT0_' type='func-type' binding='weak-binding' visibility='default-visibility' is-defined='yes'/>
    <elf-symbol name='_ZNSt8__detail9__variant5__getILm7ERKNS0_15_Variadic_unionIJsilhtjmbSt17basic_string_viewIcSt11char_traitsIcEEEEEEEDcSt16in_place_index_tIXT_EEOT0_' type='func-type' binding='weak-binding' visibility='default-visibility' is-defined='yes'/>
    <elf-symbol name='_ZNSt8__detail9__variant5__getILm7ERKSt7variantIJN2PJ9NullValueENS3_3sdk9TypedNullEfdasilhtjmbSt17basic_string_viewIcSt11char_traitsIcEEEEEEDcOT0_' type='func-type' binding='weak-binding' visibility='default-visibility' is-defined='yes'/>
    <elf-symbol name='_ZNSt8__detail9__variant5__getILm8ERKNS0_15_Variadic_unionIJN2PJ3sdk9TypedNullEfdasilhtjmbSt17basic_string_viewIcSt11char_traitsIcEEEEEEEDcSt16in_place_index_tIXT_EEOT0_' type='func-type' binding='weak-binding' visibility='default-visibility' is-defined='yes'/>
    <elf-symbol name='_ZNSt8__detail9__variant5__getILm8ERKNS0_15_Variadic_unionIJN2PJ9NullValueENS3_3sdk9TypedNullEfdasilhtjmbSt17basic_string_viewIcSt11char_traitsIcEEEEEEEDcSt16in_place_index_tIXT_EEOT0_' type='func-type' binding='weak-binding' visibility='default-visibility' is-defined='yes'/>
    <elf-symbol name='_ZNSt8__detail9__variant5__getILm8ERKNS0_15_Variadic_unionIJasilhtjmbSt17basic_string_viewIcSt11char_traitsIcEEEEEEEDcSt16in_place_index_tIXT_EEOT0_' type='func-type' binding='weak-binding' visibility='default-visibility' is-defined='yes'/>
    <elf-symbol name='_ZNSt8__detail9__variant5__getILm8ERKNS0_15_Variadic_unionIJdasilhtjmbSt17basic_string_viewIcSt11char_traitsIcEEEEEEEDcSt16in_place_index_tIXT_EEOT0_' type='func-type' binding='weak-binding' visibility='default-visibility' is-defined='yes'/>
    <elf-symbol name='_ZNSt8__detail9__variant5__getILm8ERKNS0_15_Variadic_unionIJfdasilhtjmbSt17basic_string_viewIcSt11char_traitsIcEEEEEEEDcSt16in_place_index_tIXT_EEOT0_' type='func-type' binding='weak-binding' visibility='default-visibility' is-defined='yes'/>
    <elf-symbol name='_ZNSt8__detail9__variant5__getILm8ERKNS0_15_Variadic_unionIJsilhtjmbSt17basic_string_viewIcSt11char_traitsIcEEEEEEEDcSt16in_place_index_tIXT_EEOT0_' type='func-type' binding='weak-binding' visibility='default-visibility' is-defined='yes'/>
    <elf-symbol name='_ZNSt8__detail9__variant5__getILm8ERKSt7variantIJN2PJ9NullValueENS3_3sdk9TypedNullEfdasilhtjmbSt17basic_string_viewIcSt11char_traitsIcEEEEEEDcOT0_' type='func-type' binding='weak-binding' visibility='default-visibility' is-defined='yes'/>
    <elf-symbol name='_ZNSt8__detail9__variant5__getILm9ERKNS0_15_Variadic_unionIJN2PJ3sdk9TypedNullEfdasilhtjmbSt17basic_string_viewIcSt11char_traitsIcEEEEEEEDcSt16in_place_index_tIXT_EEOT0_' type='func-type' binding='weak-binding' visibility='default-visibility' is-defined='yes'/>
    <elf-symbol name='_ZNSt8__detail9__variant5__getILm9ERKNS0_15_Variadic_unionIJN2PJ9NullValueENS3_3sdk9TypedNullEfdasilhtjmbSt17basic_string_viewIcSt11char_traitsIcEEEEEEEDcSt16in_place_index_tIXT_EEOT0_' type='func-type' binding='weak-binding' visibility='default-visibility' is-defined='yes'/>
    <elf-symbol name='_ZNSt8__detail9__variant5__getILm9ERKNS0_15_Variadic_unionIJasilhtjmbSt17basic_string_viewIcSt11char_traitsIcEEEEEEEDcSt16in_place_index_tIXT_EEOT0_' type='func-type' binding='weak-binding' visibility='default-visibility' is-defined='yes'/>
    <elf-symbol name='_ZNSt8__detail9__variant5__getILm9ERKNS0_15_Variadic_unionIJdasilhtjmbSt17basic_string_viewIcSt11char_traitsIcEEEEEEEDcSt16in_place_index_tIXT_EEOT0_' type='func-type' binding='weak-binding' visibility='default-visibility' is-defined='yes'/>
    <elf-symbol name='_ZNSt8__detail9__variant5__getILm9ERKNS0_15_Variadic_unionIJfdasilhtjmbSt17basic_string_viewIcSt11char_traitsIcEEEEEEEDcSt16in_place_index_tIXT_EEOT0_' type='func-type' binding='weak-binding' visibility='default-visibility' is-defined='yes'/>
    <elf-symbol name='_ZNSt8__detail9__variant5__getILm9ERKSt7variantIJN2PJ9NullValueENS3_3sdk9TypedNullEfdasilhtjmbSt17basic_string_viewIcSt11char_traitsIcEEEEEEDcOT0_' type='func-type' binding='weak-binding' visibility='default-visibility' is-defined='yes'/>
    <elf-symbol name='_ZNSt8__detail9__variant5__getIRKNS0_15_Variadic_unionIJN2PJ3sdk9TypedNullEfdasilhtjmbSt17basic_string_viewIcSt11char_traitsIcEEEEEEEDcSt16in_place_index_tILm0EEOT_' type='func-type' binding='weak-binding' visibility='default-visibility' is-defined='yes'/>
    <elf-symbol name='_ZNSt8__detail9__variant5__getIRKNS0_15_Variadic_unionIJN2PJ9NullValueENS3_3sdk9TypedNullEfdasilhtjmbSt17basic_string_viewIcSt11char_traitsIcEEEEEEEDcSt16in_place_index_tILm0EEOT_' type='func-type' binding='weak-binding' visibility='default-visibility' is-defined='yes'/>
    <elf-symbol name='_ZNSt8__detail9__variant5__getIRKNS0_15_Variadic_unionIJSt17basic_string_viewIcSt11char_traitsIcEEEEEEEDcSt16in_place_index_tILm0EEOT_' type='func-type' binding='weak-binding' visibility='default-visibility' is-defined='yes'/>
    <elf-symbol name='_ZNSt8__detail9__variant5__getIRKNS0_15_Variadic_unionIJasilhtjmbSt17basic_string_viewIcSt11char_traitsIcEEEEEEEDcSt16in_place_index_tILm0EEOT_' type='func-type' binding='weak-binding' visibility='default-visibility' is-defined='yes'/>
    <elf-symbol name='_ZNSt8__detail9__variant5__getIRKNS0_15_Variadic_unionIJbSt17basic_string_viewIcSt11char_traitsIcEEEEEEEDcSt16in_place_index_tILm0EEOT_' type='func-type' binding='weak-binding' visibility='default-visibility' is-defined='yes'/>
    <elf-symbol name='_ZNSt8__detail9__variant5__getIRKNS0_15_Variadic_unionIJdasilhtjmbSt17basic_string_viewIcSt11char_traitsIcEEEEEEEDcSt16in_place_index_tILm0EEOT_' type='func-type' binding='weak-binding' visibility='default-visibility' is-defined='yes'/>
    <elf-symbol name='_ZNSt8__detail9__variant5__getIRKNS0_15_Variadic_unionIJfdasilhtjmbSt17basic_string_viewIcSt11char_traitsIcEEEEEEEDcSt16in_place_index_tILm0EEOT_' type='func-type' binding='weak-binding' visibility='default-visibility' is-defined='yes'/>
    <elf-symbol name='_ZNSt8__detail9__variant5__getIRKNS0_15_Variadic_unionIJhtjmbSt17basic_string_viewIcSt11char_traitsIcEEEEEEEDcSt16in_place_index_tILm0EEOT_' type='func-type' binding='weak-binding' visibility='default-visibility' is-defined='yes'/>
    <elf-symbol name='_ZNSt8__detail9__variant5__getIRKNS0_15_Variadic_unionIJilhtjmbSt17basic_string_viewIcSt11char_traitsIcEEEEEEEDcSt16in_place_index_tILm0EEOT_' type='func-type' binding='weak-binding' visibility='default-visibility' is-defined='yes'/>
    <elf-symbol name='_ZNSt8__detail9__variant5__getIRKNS0_15_Variadic_unionIJjmbSt17basic_string_viewIcSt11char_traitsIcEEEEEEEDcSt16in_place_index_tILm0EEOT_' type='func-type' binding='weak-binding' visibility='default-visibility' is-defined='yes'/>
    <elf-symbol name='_ZNSt8__detail9__variant5__getIRKNS0_15_Variadic_unionIJlhtjmbSt17basic_string_viewIcSt11char_traitsIcEEEEEEEDcSt16in_place_index_tILm0EEOT_' type='func-type' binding='weak-binding' visibility='default-visibility' is-defined='yes'/>
    <elf-symbol name='_ZNSt8__detail9__variant5__getIRKNS0_15_Variadic_unionIJmbSt17basic_string_viewIcSt11char_traitsIcEEEEEEEDcSt16in_place_index_tILm0EEOT_' type='func-type' binding='weak-binding' visibility='default-visibility' is-defined='yes'/>
    <elf-symbol name='_ZNSt8__detail9__variant5__getIRKNS0_15_Variadic_unionIJsilhtjmbSt17basic_string_viewIcSt11char_traitsIcEEEEEEEDcSt16in_place_index_tILm0EEOT_' type='func-type' binding='weak-binding' visibility='default-visibility' is-defined='yes'/>
    <elf-symbol name='_ZNSt8__detail9__variant5__getIRKNS0_15_Variadic_unionIJtjmbSt17basic_string_viewIcSt11char_traitsIcEEEEEEEDcSt16in_place_index_tILm0EEOT_' type='func-type' binding='weak-binding' visibility='default-visibility' is-defined='yes'/>
    <elf-symbol name='_ZNSt8__detail9__variant5__getIRNS0_15_Variadic_unionIJ17PJ_topic_handle_tNSt7__cxx1112basic_stringIcSt11char_traitsIcESaIcEEEEEEEEDcSt16in_place_index_tILm0EEOT_' type='func-type' binding='weak-binding' visibility='default-visibility' is-defined='yes'/>
    <elf-symbol name='_ZNSt8__detail9__variant5__getIRNS0_15_Variadic_unionIJ26PJ_parser_binding_handle_tNSt7__cxx1112basic_stringIcSt11char_traitsIcESaIcEEEEEEEEDcSt16in_place_index_tILm0EEOT_' type='func-type' binding='weak-binding' visibility='default-visibility' is-defined='yes'/>
    <elf-symbol name='_ZNSt8__detail9__variant5__getIRNS0_15_Variadic_unionIJN2PJ25DataSourceRuntimeHostViewENSt7__cxx1112basic_stringIcSt11char_traitsIcESaIcEEEEEEEEDcSt16in_place_index_tILm0EEOT_' type='func-type' binding='weak-binding' visibility='default-visibility' is-defined='yes'/>
    <elf-symbol name='_ZNSt8__detail9__variant5__getIRNS0_15_Variadic_unionIJN2PJ3sdk19SourceWriteHostViewENSt7__cxx1112basic_stringIcSt11char_traitsIcESaIcEEEEEEEEDcSt16in_place_index_tILm0EEOT_' type='func-type' binding='weak-binding' visibility='default-visibility' is-defined='yes'/>
    <elf-symbol name='_ZNSt8__detail9__variant5__getIRNS0_15_Variadic_unionIJNSt7__cxx1112basic_stringIcSt11char_traitsIcESaIcEEEEEEEEDcSt16in_place_index_tILm0EEOT_' type='func-type' binding='weak-binding' visibility='default-visibility' is-defined='yes'/>
    <elf-symbol name='_ZNSt9exceptionC1Ev' type='func-type' binding='weak-binding' visibility='default-visibility' is-defined='yes'/>
    <elf-symbol name='_ZNSt9exceptionC2Ev' type='func-type' binding='weak-binding' visibility='default-visibility' alias='_ZNSt9exceptionC1Ev' is-defined='yes'/>
    <elf-symbol name='_ZSt10__distanceIPKcENSt15iterator_traitsIT_E15difference_typeES3_S3_St26random_access_iterator_tag' type='func-type' binding='weak-binding' visibility='default-visibility' is-defined='yes'/>
    <elf-symbol name='_ZSt10__distanceIPcENSt15iterator_traitsIT_E15difference_typeES2_S2_St26random_access_iterator_tag' type='func-type' binding='weak-binding' visibility='default-visibility' is-defined='yes'/>
    <elf-symbol name='_ZSt10__do_visitINSt8__detail9__variant21__deduce_visit_resultIN2PJ13PrimitiveTypeEEEZNS3_3sdk6typeOfERKSt7variantIJNS3_9NullValueENS6_9TypedNullEfdasilhtjmbSt17basic_string_viewIcSt11char_traitsIcEEEEEUlOT_E_JSG_EEDcOT0_DpOT1_' type='func-type' binding='weak-binding' visibility='default-visibility' is-defined='yes'/>
    <elf-symbol name='_ZSt10__do_visitINSt8__detail9__variant21__deduce_visit_resultIvEEZN2PJ3sdk11toAbiScalarERKSt7variantIJNS4_9NullValueENS5_9TypedNullEfdasilhtjmbSt17basic_string_viewIcSt11char_traitsIcEEEEEUlOT_E_JSF_EEDcOT0_DpOT1_' type='func-type' binding='weak-binding' visibility='default-visibility' is-defined='yes'/>
    <elf-symbol name='_ZSt10__do_visitIvZNSt8__detail9__variant16_Variant_storageILb0EJ17PJ_topic_handle_tNSt7__cxx1112basic_stringIcSt11char_traitsIcESaIcEEEEE8_M_resetEvEUlOT_E_JRSt7variantIJS3_S9_EEEEDcOT0_DpOT1_' type='func-type' binding='weak-binding' visibility='default-visibility' is-defined='yes'/>
    <elf-symbol name='_ZSt10__do_visitIvZNSt8__detail9__variant16_Variant_storageILb0EJ26PJ_parser_binding_handle_tNSt7__cxx1112basic_stringIcSt11char_traitsIcESaIcEEEEE8_M_resetEvEUlOT_E_JRSt7variantIJS3_S9_EEEEDcOT0_DpOT1_' type='func-type' binding='weak-binding' visibility='default-visibility' is-defined='yes'/>
    <elf-symbol name='_ZSt10__do_visitIvZNSt8__detail9__variant16_Variant_storageILb0EJN2PJ25DataSourceRuntimeHostViewENSt7__cxx1112basic_stringIcSt11char_traitsIcESaIcEEEEE8_M_resetEvEUlOT_E_JRSt7variantIJS4_SA_EEEEDcOT0_DpOT1_' type='func-type' binding='weak-binding' visibility='default-visibility' is-defined='yes'/>
    <elf-symbol name='_ZSt10__do_visitIvZNSt8__detail9__variant16_Variant_storageILb0EJN2PJ3sdk19SourceWriteHostViewENSt7__cxx1112basic_stringIcSt11char_traitsIcESaIcEEEEE8_M_resetEvEUlOT_E_JRSt7variantIJS5_SB_EEEEDcOT0_DpOT1_' type='func-type' binding='weak-binding' visibility='default-visibility' is-defined='yes'/>
    <elf-symbol name='_ZSt10__invoke_rIvZNSt8__detail9__variant16_Variant_storageILb0EJ17PJ_topic_handle_tNSt7__cxx1112basic_stringIcSt11char_traitsIcESaIcEEEEE8_M_resetEvEUlOT_E_JRS3_EENSt9enable_ifIX16is_invocable_r_vISB_T0_DpT1_EESB_E4typeEOSG_DpOSH_' type='func-type' binding='weak-binding' visibility='default-visibility' is-defined='yes'/>
    <elf-symbol name='_ZSt10__invoke_rIvZNSt8__detail9__variant16_Variant_storageILb0EJ17PJ_topic_handle_tNSt7__cxx1112basic_stringIcSt11char_traitsIcESaIcEEEEE8_M_resetEvEUlOT_E_JRS9_EENSt9enable_ifIX16is_invocable_r_vISB_T0_DpT1_EESB_E4typeEOSG_DpOSH_' type='func-type' binding='weak-binding' visibility='default-visibility' is-defined='yes'/>
    <elf-symbol name='_ZSt10__invoke_rIvZNSt8__detail9__variant16_Variant_storageILb0EJ26PJ_parser_binding_handle_tNSt7__cxx1112basic_stringIcSt11char_traitsIcESaIcEEEEE8_M_resetEvEUlOT_E_JRS3_EENSt9enable_ifIX16is_invocable_r_vISB_T0_DpT1_EESB_E4typeEOSG_DpOSH_' type='func-type' binding='weak-binding' visibility='default-visibility' is-defined='yes'/>
    <elf-symbol name='_ZSt10__invoke_rIvZNSt8__detail9__variant16_Variant_storageILb0EJ26PJ_parser_binding_handle_tNSt7__cxx1112basic_stringIcSt11char_traitsIcESaIcEEEEE8_M_resetEvEUlOT_E_JRS9_EENSt9enable_ifIX16is_invocable_r_vISB_T0_DpT1_EESB_E4typeEOSG_DpOSH_' type='func-type' binding='weak-binding' visibility='default-visibility' is-defined='yes'/>
    <elf-symbol name='_ZSt10__invoke_rIvZNSt8__detail9__variant16_Variant_storageILb0EJN2PJ25DataSourceRuntimeHostViewENSt7__cxx1112basic_stringIcSt11char_traitsIcESaIcEEEEE8_M_resetEvEUlOT_E_JRS4_EENSt9enable_ifIX16is_invocable_r_vISC_T0_DpT1_EESC_E4typeEOSH_DpOSI_' type='func-type' binding='weak-binding' visibility='default-visibility' is-defined='yes'/>
    <elf-symbol name='_ZSt10__invoke_rIvZNSt8__detail9__variant16_Variant_storageILb0EJN2PJ25DataSourceRuntimeHostViewENSt7__cxx1112basic_stringIcSt11char_traitsIcESaIcEEEEE8_M_resetEvEUlOT_E_JRSA_EENSt9enable_ifIX16is_invocable_r_vISC_T0_DpT1_EESC_E4typeEOSH_DpOSI_' type='func-type' binding='weak-binding' visibility='default-visibility' is-defined='yes'/>
    <elf-symbol name='_ZSt10__invoke_rIvZNSt8__detail9__variant16_Variant_storageILb0EJN2PJ3sdk19SourceWriteHostViewENSt7__cxx1112basic_stringIcSt11char_traitsIcESaIcEEEEE8_M_resetEvEUlOT_E_JRS5_EENSt9enable_ifIX16is_invocable_r_vISD_T0_DpT1_EESD_E4typeEOSI_DpOSJ_' type='func-type' binding='weak-binding' visibility='default-visibility' is-defined='yes'/>
    <elf-symbol name='_ZSt10__invoke_rIvZNSt8__detail9__variant16_Variant_storageILb0EJN2PJ3sdk19SourceWriteHostViewENSt7__cxx1112basic_stringIcSt11char_traitsIcESaIcEEEEE8_M_resetEvEUlOT_E_JRSB_EENSt9enable_ifIX16is_invocable_r_vISD_T0_DpT1_EESD_E4typeEOSI_DpOSJ_' type='func-type' binding='weak-binding' visibility='default-visibility' is-defined='yes'/>
    <elf-symbol name='_ZSt10destroy_atI17PJ_topic_handle_tEvPT_' type='func-type' binding='weak-binding' visibility='default-visibility' is-defined='yes'/>
    <elf-symbol name='_ZSt10destroy_atI22PJ_named_field_value_tEvPT_' type='func-type' binding='weak-binding' visibility='default-visibility' is-defined='yes'/>
    <elf-symbol name='_ZSt10destroy_atI26PJ_parser_binding_handle_tEvPT_' type='func-type' binding='weak-binding' visibility='default-visibility' is-defined='yes'/>
    <elf-symbol name='_ZSt10destroy_atIN2PJ25DataSourceRuntimeHostViewEEvPT_' type='func-type' binding='weak-binding' visibility='default-visibility' is-defined='yes'/>
    <elf-symbol name='_ZSt10destroy_atIN2PJ3sdk19SourceWriteHostViewEEvPT_' type='func-type' binding='weak-binding' visibility='default-visibility' is-defined='yes'/>
    <elf-symbol name='_ZSt10destroy_atINSt7__cxx1112basic_stringIcSt11char_traitsIcESaIcEEEEvPT_' type='func-type' binding='weak-binding' visibility='default-visibility' is-defined='yes'/>
    <elf-symbol name='_ZSt10to_addressIKN2PJ3sdk15NamedFieldValueEEPT_S5_' type='func-type' binding='weak-binding' visibility='default-visibility' is-defined='yes'/>
    <elf-symbol name='_ZSt10to_addressIKhEPT_S2_' type='func-type' binding='weak-binding' visibility='default-visibility' is-defined='yes'/>
    <elf-symbol name='_ZSt11__addressofI17PJ_topic_handle_tEPT_RS1_' type='func-type' binding='weak-binding' visibility='default-visibility' is-defined='yes'/>
    <elf-symbol name='_ZSt11__addressofI22PJ_named_field_value_tEPT_RS1_' type='func-type' binding='weak-binding' visibility='default-visibility' is-defined='yes'/>
    <elf-symbol name='_ZSt11__addressofI26PJ_parser_binding_handle_tEPT_RS1_' type='func-type' binding='weak-binding' visibility='default-visibility' is-defined='yes'/>
    <elf-symbol name='_ZSt11__addressofIKcEPT_RS1_' type='func-type' binding='weak-binding' visibility='default-visibility' is-defined='yes'/>
    <elf-symbol name='_ZSt11__addressofIN2PJ25DataSourceRuntimeHostViewEEPT_RS2_' type='func-type' binding='weak-binding' visibility='default-visibility' is-defined='yes'/>
    <elf-symbol name='_ZSt11__addressofIN2PJ3sdk19SourceWriteHostViewEEPT_RS3_' type='func-type' binding='weak-binding' visibility='default-visibility' is-defined='yes'/>
    <elf-symbol name='_ZSt11__addressofIN9__gnu_cxx16__aligned_membufINSt7__cxx1112basic_stringIcSt11char_traitsIcESaIcEEEEEEPT_RS9_' type='func-type' binding='weak-binding' visibility='default-visibility' is-defined='yes'/>
    <elf-symbol name='_ZSt11__addressofINSt7__cxx1112basic_stringIcSt11char_traitsIcESaIcEEEEPT_RS6_' type='func-type' binding='weak-binding' visibility='default-visibility' is-defined='yes'/>
    <elf-symbol name='_ZSt11__addressofIcEPT_RS0_' type='func-type' binding='weak-binding' visibility='default-visibility' is-defined='yes'/>
    <elf-symbol name='_ZSt12__miter_baseIPKcET_S2_' type='func-type' binding='weak-binding' visibility='default-visibility' is-defined='yes'/>
    <elf-symbol name='_ZSt12__niter_baseIP22PJ_named_field_value_tET_S2_' type='func-type' binding='weak-binding' visibility='default-visibility' is-defined='yes'/>
    <elf-symbol name='_ZSt12__niter_baseIPKcET_S2_' type='func-type' binding='weak-binding' visibility='default-visibility' is-defined='yes'/>
    <elf-symbol name='_ZSt12__niter_baseIPcET_S1_' type='func-type' binding='weak-binding' visibility='default-visibility' is-defined='yes'/>
    <elf-symbol name='_ZSt12__niter_wrapIPcET_RKS1_S1_' type='func-type' binding='weak-binding' visibility='default-visibility' is-defined='yes'/>
    <elf-symbol name='_ZSt12__relocate_aIP22PJ_named_field_value_tS1_SaIS0_EET0_T_S4_S3_RT1_' type='func-type' binding='weak-binding' visibility='default-visibility' is-defined='yes'/>
    <elf-symbol name='_ZSt12__to_addressIKN2PJ3sdk15NamedFieldValueEEPT_S5_' type='func-type' binding='weak-binding' visibility='default-visibility' is-defined='yes'/>
    <elf-symbol name='_ZSt12__to_addressIKhEPT_S2_' type='func-type' binding='weak-binding' visibility='default-visibility' is-defined='yes'/>
    <elf-symbol name='_ZSt12construct_atI22PJ_named_field_value_tJS0_EEDTgsnwcvPvLi0E_T_pispcl7declvalIT0_EEEEPS2_DpOS3_' type='func-type' binding='weak-binding' visibility='default-visibility' is-defined='yes'/>
    <elf-symbol name='_ZSt13__copy_move_aILb0EPKcPcET1_T0_S4_S3_' type='func-type' binding='weak-binding' visibility='default-visibility' is-defined='yes'/>
    <elf-symbol name='_ZSt13__invoke_implIN2PJ13PrimitiveTypeEZNS0_3sdk6typeOfERKSt7variantIJNS0_9NullValueENS2_9TypedNullEfdasilhtjmbSt17basic_string_viewIcSt11char_traitsIcEEEEEUlOT_E_JRKS4_EESD_St14__invoke_otherOT0_DpOT1_' type='func-type' binding='weak-binding' visibility='default-visibility' is-defined='yes'/>
    <elf-symbol name='_ZSt13__invoke_implIN2PJ13PrimitiveTypeEZNS0_3sdk6typeOfERKSt7variantIJNS0_9NullValueENS2_9TypedNullEfdasilhtjmbSt17basic_string_viewIcSt11char_traitsIcEEEEEUlOT_E_JRKS5_EESD_St14__invoke_otherOT0_DpOT1_' type='func-type' binding='weak-binding' visibility='default-visibility' is-defined='yes'/>
    <elf-symbol name='_ZSt13__invoke_implIN2PJ13PrimitiveTypeEZNS0_3sdk6typeOfERKSt7variantIJNS0_9NullValueENS2_9TypedNullEfdasilhtjmbSt17basic_string_viewIcSt11char_traitsIcEEEEEUlOT_E_JRKS9_EESD_St14__invoke_otherOT0_DpOT1_' type='func-type' binding='weak-binding' visibility='default-visibility' is-defined='yes'/>
    <elf-symbol name='_ZSt13__invoke_implIN2PJ13PrimitiveTypeEZNS0_3sdk6typeOfERKSt7variantIJNS0_9NullValueENS2_9TypedNullEfdasilhtjmbSt17basic_string_viewIcSt11char_traitsIcEEEEEUlOT_E_JRKaEESD_St14__invoke_otherOT0_DpOT1_' type='func-type' binding='weak-binding' visibility='default-visibility' is-defined='yes'/>
    <elf-symbol name='_ZSt13__invoke_implIN2PJ13PrimitiveTypeEZNS0_3sdk6typeOfERKSt7variantIJNS0_9NullValueENS2_9TypedNullEfdasilhtjmbSt17basic_string_viewIcSt11char_traitsIcEEEEEUlOT_E_JRKbEESD_St14__invoke_otherOT0_DpOT1_' type='func-type' binding='weak-binding' visibility='default-visibility' is-defined='yes'/>
    <elf-symbol name='_ZSt13__invoke_implIN2PJ13PrimitiveTypeEZNS0_3sdk6typeOfERKSt7variantIJNS0_9NullValueENS2_9TypedNullEfdasilhtjmbSt17basic_string_viewIcSt11char_traitsIcEEEEEUlOT_E_JRKdEESD_St14__invoke_otherOT0_DpOT1_' type='func-type' binding='weak-binding' visibility='default-visibility' is-defined='yes'/>
    <elf-symbol name='_ZSt13__invoke_implIN2PJ13PrimitiveTypeEZNS0_3sdk6typeOfERKSt7variantIJNS0_9NullValueENS2_9TypedNullEfdasilhtjmbSt17basic_string_viewIcSt11char_traitsIcEEEEEUlOT_E_JRKfEESD_St14__invoke_otherOT0_DpOT1_' type='func-type' binding='weak-binding' visibility='default-visibility' is-defined='yes'/>
    <elf-symbol name='_ZSt13__invoke_implIN2PJ13PrimitiveTypeEZNS0_3sdk6typeOfERKSt7variantIJNS0_9NullValueENS2_9TypedNullEfdasilhtjmbSt17basic_string_viewIcSt11char_traitsIcEEEEEUlOT_E_JRKhEESD_St14__invoke_otherOT0_DpOT1_' type='func-type' binding='weak-binding' visibility='default-visibility' is-defined='yes'/>
    <elf-symbol name='_ZSt13__invoke_implIN2PJ13PrimitiveTypeEZNS0_3sdk6typeOfERKSt7variantIJNS0_9NullValueENS2_9TypedNullEfdasilhtjmbSt17basic_string_viewIcSt11char_traitsIcEEEEEUlOT_E_JRKiEESD_St14__invoke_otherOT0_DpOT1_' type='func-type' binding='weak-binding' visibility='default-visibility' is-defined='yes'/>
    <elf-symbol name='_ZSt13__invoke_implIN2PJ13PrimitiveTypeEZNS0_3sdk6typeOfERKSt7variantIJNS0_9NullValueENS2_9TypedNullEfdasilhtjmbSt17basic_string_viewIcSt11char_traitsIcEEEEEUlOT_E_JRKjEESD_St14__invoke_otherOT0_DpOT1_' type='func-type' binding='weak-binding' visibility='default-visibility' is-defined='yes'/>
    <elf-symbol name='_ZSt13__invoke_implIN2PJ13PrimitiveTypeEZNS0_3sdk6typeOfERKSt7variantIJNS0_9NullValueENS2_9TypedNullEfdasilhtjmbSt17basic_string_viewIcSt11char_traitsIcEEEEEUlOT_E_JRKlEESD_St14__invoke_otherOT0_DpOT1_' type='func-type' binding='weak-binding' visibility='default-visibility' is-defined='yes'/>
    <elf-symbol name='_ZSt13__invoke_implIN2PJ13PrimitiveTypeEZNS0_3sdk6typeOfERKSt7variantIJNS0_9NullValueENS2_9TypedNullEfdasilhtjmbSt17basic_string_viewIcSt11char_traitsIcEEEEEUlOT_E_JRKmEESD_St14__invoke_otherOT0_DpOT1_' type='func-type' binding='weak-binding' visibility='default-visibility' is-defined='yes'/>
    <elf-symbol name='_ZSt13__invoke_implIN2PJ13PrimitiveTypeEZNS0_3sdk6typeOfERKSt7variantIJNS0_9NullValueENS2_9TypedNullEfdasilhtjmbSt17basic_string_viewIcSt11char_traitsIcEEEEEUlOT_E_JRKsEESD_St14__invoke_otherOT0_DpOT1_' type='func-type' binding='weak-binding' visibility='default-visibility' is-defined='yes'/>
    <elf-symbol name='_ZSt13__invoke_implIN2PJ13PrimitiveTypeEZNS0_3sdk6typeOfERKSt7variantIJNS0_9NullValueENS2_9TypedNullEfdasilhtjmbSt17basic_string_viewIcSt11char_traitsIcEEEEEUlOT_E_JRKtEESD_St14__invoke_otherOT0_DpOT1_' type='func-type' binding='weak-binding' visibility='default-visibility' is-defined='yes'/>
    <elf-symbol name='_ZSt13__invoke_implIvZN2PJ3sdk11toAbiScalarERKSt7variantIJNS0_9NullValueENS1_9TypedNullEfdasilhtjmbSt17basic_string_viewIcSt11char_traitsIcEEEEEUlOT_E_JRKS3_EESC_St14__invoke_otherOT0_DpOT1_' type='func-type' binding='weak-binding' visibility='default-visibility' is-defined='yes'/>
    <elf-symbol name='_ZSt13__invoke_implIvZN2PJ3sdk11toAbiScalarERKSt7variantIJNS0_9NullValueENS1_9TypedNullEfdasilhtjmbSt17basic_string_viewIcSt11char_traitsIcEEEEEUlOT_E_JRKS4_EESC_St14__invoke_otherOT0_DpOT1_' type='func-type' binding='weak-binding' visibility='default-visibility' is-defined='yes'/>
    <elf-symbol name='_ZSt13__invoke_implIvZN2PJ3sdk11toAbiScalarERKSt7variantIJNS0_9NullValueENS1_9TypedNullEfdasilhtjmbSt17basic_string_viewIcSt11char_traitsIcEEEEEUlOT_E_JRKS8_EESC_St14__invoke_otherOT0_DpOT1_' type='func-type' binding='weak-binding' visibility='default-visibility' is-defined='yes'/>
    <elf-symbol name='_ZSt13__invoke_implIvZN2PJ3sdk11toAbiScalarERKSt7variantIJNS0_9NullValueENS1_9TypedNullEfdasilhtjmbSt17basic_string_viewIcSt11char_traitsIcEEEEEUlOT_E_JRKaEESC_St14__invoke_otherOT0_DpOT1_' type='func-type' binding='weak-binding' visibility='default-visibility' is-defined='yes'/>
    <elf-symbol name='_ZSt13__invoke_implIvZN2PJ3sdk11toAbiScalarERKSt7variantIJNS0_9NullValueENS1_9TypedNullEfdasilhtjmbSt17basic_string_viewIcSt11char_traitsIcEEEEEUlOT_E_JRKbEESC_St14__invoke_otherOT0_DpOT1_' type='func-type' binding='weak-binding' visibility='default-visibility' is-defined='yes'/>
    <elf-symbol name='_ZSt13__invoke_implIvZN2PJ3sdk11toAbiScalarERKSt7variantIJNS0_9NullValueENS1_9TypedNullEfdasilhtjmbSt17basic_string_viewIcSt11char_traitsIcEEEEEUlOT_E_JRKdEESC_St14__invoke_otherOT0_DpOT1_' type='func-type' binding='weak-binding' visibility='default-visibility' is-defined='yes'/>
    <elf-symbol name='_ZSt13__invoke_implIvZN2PJ3sdk11toAbiScalarERKSt7variantIJNS0_9NullValueENS1_9TypedNullEfdasilhtjmbSt17basic_string_viewIcSt11char_traitsIcEEEEEUlOT_E_JRKfEESC_St14__invoke_otherOT0_DpOT1_' type='func-type' binding='weak-binding' visibility='default-visibility' is-defined='yes'/>
    <elf-symbol name='_ZSt13__invoke_implIvZN2PJ3sdk11toAbiScalarERKSt7variantIJNS0_9NullValueENS1_9TypedNullEfdasilhtjmbSt17basic_string_viewIcSt11char_traitsIcEEEEEUlOT_E_JRKhEESC_St14__invoke_otherOT0_DpOT1_' type='func-type' binding='weak-binding' visibility='default-visibility' is-defined='yes'/>
    <elf-symbol name='_ZSt13__invoke_implIvZN2PJ3sdk11toAbiScalarERKSt7variantIJNS0_9NullValueENS1_9TypedNullEfdasilhtjmbSt17basic_string_viewIcSt11char_traitsIcEEEEEUlOT_E_JRKiEESC_St14__invoke_otherOT0_DpOT1_' type='func-type' binding='weak-binding' visibility='default-visibility' is-defined='yes'/>
    <elf-symbol name='_ZSt13__invoke_implIvZN2PJ3sdk11toAbiScalarERKSt7variantIJNS0_9NullValueENS1_9TypedNullEfdasilhtjmbSt17basic_string_viewIcSt11char_traitsIcEEEEEUlOT_E_JRKjEESC_St14__invoke_otherOT0_DpOT1_' type='func-type' binding='weak-binding' visibility='default-visibility' is-defined='yes'/>
    <elf-symbol name='_ZSt13__invoke_implIvZN2PJ3sdk11toAbiScalarERKSt7variantIJNS0_9NullValueENS1_9TypedNullEfdasilhtjmbSt17basic_string_viewIcSt11char_traitsIcEEEEEUlOT_E_JRKlEESC_St14__invoke_otherOT0_DpOT1_' type='func-type' binding='weak-binding' visibility='default-visibility' is-defined='yes'/>
    <elf-symbol name='_ZSt13__invoke_implIvZN2PJ3sdk11toAbiScalarERKSt7variantIJNS0_9NullValueENS1_9TypedNullEfdasilhtjmbSt17basic_string_viewIcSt11char_traitsIcEEEEEUlOT_E_JRKmEESC_St14__invoke_otherOT0_DpOT1_' type='func-type' binding='weak-binding' visibility='default-visibility' is-defined='yes'/>
    <elf-symbol name='_ZSt13__invoke_implIvZN2PJ3sdk11toAbiScalarERKSt7variantIJNS0_9NullValueENS1_9TypedNullEfdasilhtjmbSt17basic_string_viewIcSt11char_traitsIcEEEEEUlOT_E_JRKsEESC_St14__invoke_otherOT0_DpOT1_' type='func-type' binding='weak-binding' visibility='default-visibility' is-defined='yes'/>
    <elf-symbol name='_ZSt13__invoke_implIvZN2PJ3sdk11toAbiScalarERKSt7variantIJNS0_9NullValueENS1_9TypedNullEfdasilhtjmbSt17basic_string_viewIcSt11char_traitsIcEEEEEUlOT_E_JRKtEESC_St14__invoke_otherOT0_DpOT1_' type='func-type' binding='weak-binding' visibility='default-visibility' is-defined='yes'/>
    <elf-symbol name='_ZSt13__invoke_implIvZNSt8__detail9__variant16_Variant_storageILb0EJ17PJ_topic_handle_tNSt7__cxx1112basic_stringIcSt11char_traitsIcESaIcEEEEE8_M_resetEvEUlOT_E_JRS3_EESB_St14__invoke_otherOT0_DpOT1_' type='func-type' binding='weak-binding' visibility='default-visibility' is-defined='yes'/>
    <elf-symbol name='_ZSt13__invoke_implIvZNSt8__detail9__variant16_Variant_storageILb0EJ17PJ_topic_handle_tNSt7__cxx1112basic_stringIcSt11char_traitsIcESaIcEEEEE8_M_resetEvEUlOT_E_JRS9_EESB_St14__invoke_otherOT0_DpOT1_' type='func-type' binding='weak-binding' visibility='default-visibility' is-defined='yes'/>
    <elf-symbol name='_ZSt13__invoke_implIvZNSt8__detail9__variant16_Variant_storageILb0EJ26PJ_parser_binding_handle_tNSt7__cxx1112basic_stringIcSt11char_traitsIcESaIcEEEEE8_M_resetEvEUlOT_E_JRS3_EESB_St14__invoke_otherOT0_DpOT1_' type='func-type' binding='weak-binding' visibility='default-visibility' is-defined='yes'/>
    <elf-symbol name='_ZSt13__invoke_implIvZNSt8__detail9__variant16_Variant_storageILb0EJ26PJ_parser_binding_handle_tNSt7__cxx1112basic_stringIcSt11char_traitsIcESaIcEEEEE8_M_resetEvEUlOT_E_JRS9_EESB_St14__invoke_otherOT0_DpOT1_' type='func-type' binding='weak-binding' visibility='default-visibility' is-defined='yes'/>
    <elf-symbol name='_ZSt13__invoke_implIvZNSt8__detail9__variant16_Variant_storageILb0EJN2PJ25DataSourceRuntimeHostViewENSt7__cxx1112basic_stringIcSt11char_traitsIcESaIcEEEEE8_M_resetEvEUlOT_E_JRS4_EESC_St14__invoke_otherOT0_DpOT1_' type='func-type' binding='weak-binding' visibility='default-visibility' is-defined='yes'/>
    <elf-symbol name='_ZSt13__invoke_implIvZNSt8__detail9__variant16_Variant_storageILb0EJN2PJ25DataSourceRuntimeHostViewENSt7__cxx1112basic_stringIcSt11char_traitsIcESaIcEEEEE8_M_resetEvEUlOT_E_JRSA_EESC_St14__invoke_otherOT0_DpOT1_' type='func-type' binding='weak-binding' visibility='default-visibility' is-defined='yes'/>
    <elf-symbol name='_ZSt13__invoke_implIvZNSt8__detail9__variant16_Variant_storageILb0EJN2PJ3sdk19SourceWriteHostViewENSt7__cxx1112basic_stringIcSt11char_traitsIcESaIcEEEEE8_M_resetEvEUlOT_E_JRS5_EESD_St14__invoke_otherOT0_DpOT1_' type='func-type' binding='weak-binding' visibility='default-visibility' is-defined='yes'/>
    <elf-symbol name='_ZSt13__invoke_implIvZNSt8__detail9__variant16_Variant_storageILb0EJN2PJ3sdk19SourceWriteHostViewENSt7__cxx1112basic_stringIcSt11char_traitsIcESaIcEEEEE8_M_resetEvEUlOT_E_JRSB_EESD_St14__invoke_otherOT0_DpOT1_' type='func-type' binding='weak-binding' visibility='default-visibility' is-defined='yes'/>
    <elf-symbol name='_ZSt14__copy_move_a1ILb0EPKcPcET1_T0_S4_S3_' type='func-type' binding='weak-binding' visibility='default-visibility' is-defined='yes'/>
    <elf-symbol name='_ZSt14__copy_move_a2ILb0EPKcPcET1_T0_S4_S3_' type='func-type' binding='weak-binding' visibility='default-visibility' is-defined='yes'/>
    <elf-symbol name='_ZSt14__relocate_a_1I22PJ_named_field_value_tS0_ENSt9enable_ifIXsrSt24__is_bitwise_relocatableIT_vE5valueEPS3_E4typeES5_S5_S5_RSaIT0_E' type='func-type' binding='weak-binding' visibility='default-visibility' is-defined='yes'/>
    <elf-symbol name='_ZSt14__variant_castIJ17PJ_topic_handle_tNSt7__cxx1112basic_stringIcSt11char_traitsIcESaIcEEEERNSt8__detail9__variant16_Variant_storageILb0EJS0_S6_EEEEDcOT0_' type='func-type' binding='weak-binding' visibility='default-visibility' is-defined='yes'/>
    <elf-symbol name='_ZSt14__variant_castIJ26PJ_parser_binding_handle_tNSt7__cxx1112basic_stringIcSt11char_traitsIcESaIcEEEERNSt8__detail9__variant16_Variant_storageILb0EJS0_S6_EEEEDcOT0_' type='func-type' binding='weak-binding' visibility='default-visibility' is-defined='yes'/>
    <elf-symbol name='_ZSt14__variant_castIJN2PJ25DataSourceRuntimeHostViewENSt7__cxx1112basic_stringIcSt11char_traitsIcESaIcEEEERNSt8__detail9__variant16_Variant_storageILb0EJS1_S7_EEEEDcOT0_' type='func-type' binding='weak-binding' visibility='default-visibility' is-defined='yes'/>
    <elf-symbol name='_ZSt14__variant_castIJN2PJ3sdk19SourceWriteHostViewENSt7__cxx1112basic_stringIcSt11char_traitsIcESaIcEEEERNSt8__detail9__variant16_Variant_storageILb0EJS2_S8_EEEEDcOT0_' type='func-type' binding='weak-binding' visibility='default-visibility' is-defined='yes'/>
    <elf-symbol name='_ZSt15__alloc_on_copyISaIcEEvRT_RKS1_' type='func-type' binding='weak-binding' visibility='default-visibility' is-defined='yes'/>
    <elf-symbol name='_ZSt15__alloc_on_moveISaIcEEvRT_S2_' type='func-type' binding='weak-binding' visibility='default-visibility' is-defined='yes'/>
    <elf-symbol name='_ZSt17holds_alternativeI17PJ_topic_handle_tJS0_NSt7__cxx1112basic_stringIcSt11char_traitsIcESaIcEEEEEbRKSt7variantIJDpT0_EE' type='func-type' binding='weak-binding' visibility='default-visibility' is-defined='yes'/>
    <elf-symbol name='_ZSt17holds_alternativeI26PJ_parser_binding_handle_tJS0_NSt7__cxx1112basic_stringIcSt11char_traitsIcESaIcEEEEEbRKSt7variantIJDpT0_EE' type='func-type' binding='weak-binding' visibility='default-visibility' is-defined='yes'/>
    <elf-symbol name='_ZSt17holds_alternativeIN2PJ25DataSourceRuntimeHostViewEJS1_NSt7__cxx1112basic_stringIcSt11char_traitsIcESaIcEEEEEbRKSt7variantIJDpT0_EE' type='func-type' binding='weak-binding' visibility='default-visibility' is-defined='yes'/>
    <elf-symbol name='_ZSt17holds_alternativeIN2PJ3sdk19SourceWriteHostViewEJS2_NSt7__cxx1112basic_stringIcSt11char_traitsIcESaIcEEEEEbRKSt7variantIJDpT0_EE' type='func-type' binding='weak-binding' visibility='default-visibility' is-defined='yes'/>
    <elf-symbol name='_ZSt17holds_alternativeIN2PJ3sdk9TypedNullEJNS0_9NullValueES2_fdasilhtjmbSt17basic_string_viewIcSt11char_traitsIcEEEEbRKSt7variantIJDpT0_EE' type='func-type' binding='weak-binding' visibility='default-visibility' is-defined='yes'/>
    <elf-symbol name='_ZSt17holds_alternativeIN2PJ9NullValueEJS1_NS0_3sdk9TypedNullEfdasilhtjmbSt17basic_string_viewIcSt11char_traitsIcEEEEbRKSt7variantIJDpT0_EE' type='func-type' binding='weak-binding' visibility='default-visibility' is-defined='yes'/>
    <elf-symbol name='_ZSt19__iterator_categoryIPKcENSt15iterator_traitsIT_E17iterator_categoryERKS3_' type='func-type' binding='weak-binding' visibility='default-visibility' is-defined='yes'/>
    <elf-symbol name='_ZSt19__iterator_categoryIPcENSt15iterator_traitsIT_E17iterator_categoryERKS2_' type='func-type' binding='weak-binding' visibility='default-visibility' is-defined='yes'/>
    <elf-symbol name='_ZSt21is_constant_evaluatedv' type='func-type' binding='weak-binding' visibility='default-visibility' is-defined='yes'/>
    <elf-symbol name='_ZSt26__throw_bad_variant_accessPKc' type='func-type' binding='weak-binding' visibility='default-visibility' is-defined='yes'/>
    <elf-symbol name='_ZSt26__throw_bad_variant_accessb' type='func-type' binding='weak-binding' visibility='default-visibility' is-defined='yes'/>
    <elf-symbol name='_ZSt3getI17PJ_topic_handle_tJS0_NSt7__cxx1112basic_stringIcSt11char_traitsIcESaIcEEEEERT_RSt7variantIJDpT0_EE' type='func-type' binding='weak-binding' visibility='default-visibility' is-defined='yes'/>
    <elf-symbol name='_ZSt3getI26PJ_parser_binding_handle_tJS0_NSt7__cxx1112basic_stringIcSt11char_traitsIcESaIcEEEEERT_RSt7variantIJDpT0_EE' type='func-type' binding='weak-binding' visibility='default-visibility' is-defined='yes'/>
    <elf-symbol name='_ZSt3getILm0EJ17PJ_topic_handle_tNSt7__cxx1112basic_stringIcSt11char_traitsIcESaIcEEEEERNSt19variant_alternativeIXT_ESt7variantIJDpT0_EEE4typeERSB_' type='func-type' binding='weak-binding' visibility='default-visibility' is-defined='yes'/>
    <elf-symbol name='_ZSt3getILm0EJ26PJ_parser_binding_handle_tNSt7__cxx1112basic_stringIcSt11char_traitsIcESaIcEEEEERNSt19variant_alternativeIXT_ESt7variantIJDpT0_EEE4typeERSB_' type='func-type' binding='weak-binding' visibility='default-visibility' is-defined='yes'/>
    <elf-symbol name='_ZSt3getILm0EJN2PJ25DataSourceRuntimeHostViewENSt7__cxx1112basic_stringIcSt11char_traitsIcESaIcEEEEERNSt19variant_alternativeIXT_ESt7variantIJDpT0_EEE4typeERSC_' type='func-type' binding='weak-binding' visibility='default-visibility' is-defined='yes'/>
    <elf-symbol name='_ZSt3getILm0EJN2PJ3sdk19SourceWriteHostViewENSt7__cxx1112basic_stringIcSt11char_traitsIcESaIcEEEEERNSt19variant_alternativeIXT_ESt7variantIJDpT0_EEE4typeERSD_' type='func-type' binding='weak-binding' visibility='default-visibility' is-defined='yes'/>
    <elf-symbol name='_ZSt3getILm1EJ17PJ_topic_handle_tNSt7__cxx1112basic_stringIcSt11char_traitsIcESaIcEEEEERNSt19variant_alternativeIXT_ESt7variantIJDpT0_EEE4typeERSB_' type='func-type' binding='weak-binding' visibility='default-visibility' is-defined='yes'/>
    <elf-symbol name='_ZSt3getILm1EJ26PJ_parser_binding_handle_tNSt7__cxx1112basic_stringIcSt11char_traitsIcESaIcEEEEERNSt19variant_alternativeIXT_ESt7variantIJDpT0_EEE4typeERSB_' type='func-type' binding='weak-binding' visibility='default-visibility' is-defined='yes'/>
    <elf-symbol name='_ZSt3getILm1EJN2PJ25DataSourceRuntimeHostViewENSt7__cxx1112basic_stringIcSt11char_traitsIcESaIcEEEEERNSt19variant_alternativeIXT_ESt7variantIJDpT0_EEE4typeERSC_' type='func-type' binding='weak-binding' visibility='default-visibility' is-defined='yes'/>
    <elf-symbol name='_ZSt3getILm1EJN2PJ3sdk19SourceWriteHostViewENSt7__cxx1112basic_stringIcSt11char_traitsIcESaIcEEEEERNSt19variant_alternativeIXT_ESt7variantIJDpT0_EEE4typeERSD_' type='func-type' binding='weak-binding' visibility='default-visibility' is-defined='yes'/>
    <elf-symbol name='_ZSt3getIN2PJ25DataSourceRuntimeHostViewEJS1_NSt7__cxx1112basic_stringIcSt11char_traitsIcESaIcEEEEERT_RSt7variantIJDpT0_EE' type='func-type' binding='weak-binding' visibility='default-visibility' is-defined='yes'/>
    <elf-symbol name='_ZSt3getIN2PJ3sdk19SourceWriteHostViewEJS2_NSt7__cxx1112basic_stringIcSt11char_traitsIcESaIcEEEEERT_RSt7variantIJDpT0_EE' type='func-type' binding='weak-binding' visibility='default-visibility' is-defined='yes'/>
    <elf-symbol name='_ZSt3getINSt7__cxx1112basic_stringIcSt11char_traitsIcESaIcEEEJ17PJ_topic_handle_tS5_EERT_RSt7variantIJDpT0_EE' type='func-type' binding='weak-binding' visibility='default-visibility' is-defined='yes'/>
    <elf-symbol name='_ZSt3getINSt7__cxx1112basic_stringIcSt11char_traitsIcESaIcEEEJ26PJ_parser_binding_handle_tS5_EERT_RSt7variantIJDpT0_EE' type='func-type' binding='weak-binding' visibility='default-visibility' is-defined='yes'/>
    <elf-symbol name='_ZSt3getINSt7__cxx1112basic_stringIcSt11char_traitsIcESaIcEEEJN2PJ25DataSourceRuntimeHostViewES5_EERT_RSt7variantIJDpT0_EE' type='func-type' binding='weak-binding' visibility='default-visibility' is-defined='yes'/>
    <elf-symbol name='_ZSt3getINSt7__cxx1112basic_stringIcSt11char_traitsIcESaIcEEEJN2PJ3sdk19SourceWriteHostViewES5_EERT_RSt7variantIJDpT0_EE' type='func-type' binding='weak-binding' visibility='default-visibility' is-defined='yes'/>
    <elf-symbol name='_ZSt3maxImERKT_S2_S2_' type='func-type' binding='weak-binding' visibility='default-visibility' is-defined='yes'/>
    <elf-symbol name='_ZSt3minImERKT_S2_S2_' type='func-type' binding='weak-binding' visibility='default-visibility' is-defined='yes'/>
    <elf-symbol name='_ZSt4copyIPKcPcET0_T_S4_S3_' type='func-type' binding='weak-binding' visibility='default-visibility' is-defined='yes'/>
    <elf-symbol name='_ZSt4moveIR17PJ_topic_handle_tEONSt16remove_referenceIT_E4typeEOS3_' type='func-type' binding='weak-binding' visibility='default-visibility' is-defined='yes'/>
    <elf-symbol name='_ZSt4moveIR22PJ_named_field_value_tEONSt16remove_referenceIT_E4typeEOS3_' type='func-type' binding='weak-binding' visibility='default-visibility' is-defined='yes'/>
    <elf-symbol name='_ZSt4moveIR26PJ_parser_binding_handle_tEONSt16remove_referenceIT_E4typeEOS3_' type='func-type' binding='weak-binding' visibility='default-visibility' is-defined='yes'/>
    <elf-symbol name='_ZSt4moveIRN2PJ10UnexpectedINSt7__cxx1112basic_stringIcSt11char_traitsIcESaIcEEEEEEONSt16remove_referenceIT_E4typeEOSB_' type='func-type' binding='weak-binding' visibility='default-visibility' is-defined='yes'/>
    <elf-symbol name='_ZSt4moveIRN2PJ25DataSourceRuntimeHostViewEEONSt16remove_referenceIT_E4typeEOS4_' type='func-type' binding='weak-binding' visibility='default-visibility' is-defined='yes'/>
    <elf-symbol name='_ZSt4moveIRN2PJ3sdk19SourceWriteHostViewEEONSt16remove_referenceIT_E4typeEOS5_' type='func-type' binding='weak-binding' visibility='default-visibility' is-defined='yes'/>
    <elf-symbol name='_ZSt4moveIRN2PJ8ExpectedINS0_25DataSourceRuntimeHostViewENSt7__cxx1112basic_stringIcSt11char_traitsIcESaIcEEEEEEONSt16remove_referenceIT_E4typeEOSC_' type='func-type' binding='weak-binding' visibility='default-visibility' is-defined='yes'/>
    <elf-symbol name='_ZSt4moveIRN2PJ8ExpectedINS0_3sdk19SourceWriteHostViewENSt7__cxx1112basic_stringIcSt11char_traitsIcESaIcEEEEEEONSt16remove_referenceIT_E4typeEOSD_' type='func-type' binding='weak-binding' visibility='default-visibility' is-defined='yes'/>
    <elf-symbol name='_ZSt4moveIRN2PJ8ExpectedIvNSt7__cxx1112basic_stringIcSt11char_traitsIcESaIcEEEEEEONSt16remove_referenceIT_E4typeEOSB_' type='func-type' binding='weak-binding' visibility='default-visibility' is-defined='yes'/>
    <elf-symbol name='_ZSt4moveIRNSt7__cxx1112basic_stringIcSt11char_traitsIcESaIcEEEEONSt16remove_referenceIT_E4typeEOS8_' type='func-type' binding='weak-binding' visibility='default-visibility' is-defined='yes'/>
    <elf-symbol name='_ZSt4moveIRSaIcEEONSt16remove_referenceIT_E4typeEOS3_' type='func-type' binding='weak-binding' visibility='default-visibility' is-defined='yes'/>
    <elf-symbol name='_ZSt5visitIZN2PJ3sdk11toAbiScalarERKSt7variantIJNS0_9NullValueENS1_9TypedNullEfdasilhtjmbSt17basic_string_viewIcSt11char_traitsIcEEEEEUlOT_E_JSB_EENSt13invoke_resultISC_JDpNSt11conditionalIX21is_lvalue_reference_vIT0_EERNSt19variant_alternativeILm0ENSt16remove_referenceIDTcl4__ascl7declvalISH_EEEEE4typeEE4typeEOSO_E4typeEEE4typeESD_DpOSH_' type='func-type' binding='weak-binding' visibility='default-visibility' is-defined='yes'/>
    <elf-symbol name='_ZSt5visitIZN2PJ3sdk6typeOfERKSt7variantIJNS0_9NullValueENS1_9TypedNullEfdasilhtjmbSt17basic_string_viewIcSt11char_traitsIcEEEEEUlOT_E_JSB_EENSt13invoke_resultISC_JDpNSt11conditionalIX21is_lvalue_reference_vIT0_EERNSt19variant_alternativeILm0ENSt16remove_referenceIDTcl4__ascl7declvalISH_EEEEE4typeEE4typeEOSO_E4typeEEE4typeESD_DpOSH_' type='func-type' binding='weak-binding' visibility='default-visibility' is-defined='yes'/>
    <elf-symbol name='_ZSt7forwardI17PJ_topic_handle_tEOT_RNSt16remove_referenceIS1_E4typeE' type='func-type' binding='weak-binding' visibility='default-visibility' is-defined='yes'/>
    <elf-symbol name='_ZSt7forwardI22PJ_named_field_value_tEOT_RNSt16remove_referenceIS1_E4typeE' type='func-type' binding='weak-binding' visibility='default-visibility' is-defined='yes'/>
    <elf-symbol name='_ZSt7forwardI26PJ_parser_binding_handle_tEOT_RNSt16remove_referenceIS1_E4typeE' type='func-type' binding='weak-binding' visibility='default-visibility' is-defined='yes'/>
    <elf-symbol name='_ZSt7forwardIN2PJ25DataSourceRuntimeHostViewEEOT_RNSt16remove_referenceIS2_E4typeE' type='func-type' binding='weak-binding' visibility='default-visibility' is-defined='yes'/>
    <elf-symbol name='_ZSt7forwardIN2PJ3sdk19SourceWriteHostViewEEOT_RNSt16remove_referenceIS3_E4typeE' type='func-type' binding='weak-binding' visibility='default-visibility' is-defined='yes'/>
    <elf-symbol name='_ZSt7forwardINSt7__cxx1112basic_stringIcSt11char_traitsIcESaIcEEEEOT_RNSt16remove_referenceIS6_E4typeE' type='func-type' binding='weak-binding' visibility='default-visibility' is-defined='yes'/>
    <elf-symbol name='_ZSt7forwardIOZN2PJ3sdk11toAbiScalarERKSt7variantIJNS0_9NullValueENS1_9TypedNullEfdasilhtjmbSt17basic_string_viewIcSt11char_traitsIcEEEEEUlOT_E_ESD_RNSt16remove_referenceISC_E4typeE' type='func-type' binding='weak-binding' visibility='default-visibility' is-defined='yes'/>
    <elf-symbol name='_ZSt7forwardIOZN2PJ3sdk6typeOfERKSt7variantIJNS0_9NullValueENS1_9TypedNullEfdasilhtjmbSt17basic_string_viewIcSt11char_traitsIcEEEEEUlOT_E_ESD_RNSt16remove_referenceISC_E4typeE' type='func-type' binding='weak-binding' visibility='default-visibility' is-defined='yes'/>
    <elf-symbol name='_ZSt7forwardIOZNSt8__detail9__variant16_Variant_storageILb0EJ17PJ_topic_handle_tNSt7__cxx1112basic_stringIcSt11char_traitsIcESaIcEEEEE8_M_resetEvEUlOT_E_ESC_RNSt16remove_referenceISB_E4typeE' type='func-type' binding='weak-binding' visibility='default-visibility' is-defined='yes'/>
    <elf-symbol name='_ZSt7forwardIOZNSt8__detail9__variant16_Variant_storageILb0EJ26PJ_parser_binding_handle_tNSt7__cxx1112basic_stringIcSt11char_traitsIcESaIcEEEEE8_M_resetEvEUlOT_E_ESC_RNSt16remove_referenceISB_E4typeE' type='func-type' binding='weak-binding' visibility='default-visibility' is-defined='yes'/>
    <elf-symbol name='_ZSt7forwardIOZNSt8__detail9__variant16_Variant_storageILb0EJN2PJ25DataSourceRuntimeHostViewENSt7__cxx1112basic_stringIcSt11char_traitsIcESaIcEEEEE8_M_resetEvEUlOT_E_ESD_RNSt16remove_referenceISC_E4typeE' type='func-type' binding='weak-binding' visibility='default-visibility' is-defined='yes'/>
    <elf-symbol name='_ZSt7forwardIOZNSt8__detail9__variant16_Variant_storageILb0EJN2PJ3sdk19SourceWriteHostViewENSt7__cxx1112basic_stringIcSt11char_traitsIcESaIcEEEEE8_M_resetEvEUlOT_E_ESE_RNSt16remove_referenceISD_E4typeE' type='func-type' binding='weak-binding' visibility='default-visibility' is-defined='yes'/>
    <elf-symbol name='_ZSt7forwardIR17PJ_topic_handle_tEOT_RNSt16remove_referenceIS2_E4typeE' type='func-type' binding='weak-binding' visibility='default-visibility' is-defined='yes'/>
    <elf-symbol name='_ZSt7forwardIR26PJ_parser_binding_handle_tEOT_RNSt16remove_referenceIS2_E4typeE' type='func-type' binding='weak-binding' visibility='default-visibility' is-defined='yes'/>
    <elf-symbol name='_ZSt7forwardIRKN2PJ3sdk9TypedNullEEOT_RNSt16remove_referenceIS5_E4typeE' type='func-type' binding='weak-binding' visibility='default-visibility' is-defined='yes'/>
    <elf-symbol name='_ZSt7forwardIRKN2PJ9NullValueEEOT_RNSt16remove_referenceIS4_E4typeE' type='func-type' binding='weak-binding' visibility='default-visibility' is-defined='yes'/>
    <elf-symbol name='_ZSt7forwardIRKNSt8__detail9__variant15_Variadic_unionIJN2PJ3sdk9TypedNullEfdasilhtjmbSt17basic_string_viewIcSt11char_traitsIcEEEEEEOT_RNSt16remove_referenceISD_E4typeE' type='func-type' binding='weak-binding' visibility='default-visibility' is-defined='yes'/>
    <elf-symbol name='_ZSt7forwardIRKNSt8__detail9__variant15_Variadic_unionIJN2PJ9NullValueENS3_3sdk9TypedNullEfdasilhtjmbSt17basic_string_viewIcSt11char_traitsIcEEEEEEOT_RNSt16remove_referenceISE_E4typeE' type='func-type' binding='weak-binding' visibility='default-visibility' is-defined='yes'/>
    <elf-symbol name='_ZSt7forwardIRKNSt8__detail9__variant15_Variadic_unionIJSt17basic_string_viewIcSt11char_traitsIcEEEEEEOT_RNSt16remove_referenceISA_E4typeE' type='func-type' binding='weak-binding' visibility='default-visibility' is-defined='yes'/>
    <elf-symbol name='_ZSt7forwardIRKNSt8__detail9__variant15_Variadic_unionIJasilhtjmbSt17basic_string_viewIcSt11char_traitsIcEEEEEEOT_RNSt16remove_referenceISA_E4typeE' type='func-type' binding='weak-binding' visibility='default-visibility' is-defined='yes'/>
    <elf-symbol name='_ZSt7forwardIRKNSt8__detail9__variant15_Variadic_unionIJbSt17basic_string_viewIcSt11char_traitsIcEEEEEEOT_RNSt16remove_referenceISA_E4typeE' type='func-type' binding='weak-binding' visibility='default-visibility' is-defined='yes'/>
    <elf-symbol name='_ZSt7forwardIRKNSt8__detail9__variant15_Variadic_unionIJdasilhtjmbSt17basic_string_viewIcSt11char_traitsIcEEEEEEOT_RNSt16remove_referenceISA_E4typeE' type='func-type' binding='weak-binding' visibility='default-visibility' is-defined='yes'/>
    <elf-symbol name='_ZSt7forwardIRKNSt8__detail9__variant15_Variadic_unionIJfdasilhtjmbSt17basic_string_viewIcSt11char_traitsIcEEEEEEOT_RNSt16remove_referenceISA_E4typeE' type='func-type' binding='weak-binding' visibility='default-visibility' is-defined='yes'/>
    <elf-symbol name='_ZSt7forwardIRKNSt8__detail9__variant15_Variadic_unionIJhtjmbSt17basic_string_viewIcSt11char_traitsIcEEEEEEOT_RNSt16remove_referenceISA_E4typeE' type='func-type' binding='weak-binding' visibility='default-visibility' is-defined='yes'/>
    <elf-symbol name='_ZSt7forwardIRKNSt8__detail9__variant15_Variadic_unionIJilhtjmbSt17basic_string_viewIcSt11char_traitsIcEEEEEEOT_RNSt16remove_referenceISA_E4typeE' type='func-type' binding='weak-binding' visibility='default-visibility' is-defined='yes'/>
    <elf-symbol name='_ZSt7forwardIRKNSt8__detail9__variant15_Variadic_unionIJjmbSt17basic_string_viewIcSt11char_traitsIcEEEEEEOT_RNSt16remove_referenceISA_E4typeE' type='func-type' binding='weak-binding' visibility='default-visibility' is-defined='yes'/>
    <elf-symbol name='_ZSt7forwardIRKNSt8__detail9__variant15_Variadic_unionIJlhtjmbSt17basic_string_viewIcSt11char_traitsIcEEEEEEOT_RNSt16remove_referenceISA_E4typeE' type='func-type' binding='weak-binding' visibility='default-visibility' is-defined='yes'/>
    <elf-symbol name='_ZSt7forwardIRKNSt8__detail9__variant15_Variadic_unionIJmbSt17basic_string_viewIcSt11char_traitsIcEEEEEEOT_RNSt16remove_referenceISA_E4typeE' type='func-type' binding='weak-binding' visibility='default-visibility' is-defined='yes'/>
    <elf-symbol name='_ZSt7forwardIRKNSt8__detail9__variant15_Variadic_unionIJsilhtjmbSt17basic_string_viewIcSt11char_traitsIcEEEEEEOT_RNSt16remove_referenceISA_E4typeE' type='func-type' binding='weak-binding' visibility='default-visibility' is-defined='yes'/>
    <elf-symbol name='_ZSt7forwardIRKNSt8__detail9__variant15_Variadic_unionIJtjmbSt17basic_string_viewIcSt11char_traitsIcEEEEEEOT_RNSt16remove_referenceISA_E4typeE' type='func-type' binding='weak-binding' visibility='default-visibility' is-defined='yes'/>
    <elf-symbol name='_ZSt7forwardIRKSt17basic_string_viewIcSt11char_traitsIcEEEOT_RNSt16remove_referenceIS6_E4typeE' type='func-type' binding='weak-binding' visibility='default-visibility' is-defined='yes'/>
    <elf-symbol name='_ZSt7forwardIRKSt7variantIJN2PJ9NullValueENS1_3sdk9TypedNullEfdasilhtjmbSt17basic_string_viewIcSt11char_traitsIcEEEEEOT_RNSt16remove_referenceISC_E4typeE' type='func-type' binding='weak-binding' visibility='default-visibility' is-defined='yes'/>
    <elf-symbol name='_ZSt7forwardIRKaEOT_RNSt16remove_referenceIS2_E4typeE' type='func-type' binding='weak-binding' visibility='default-visibility' is-defined='yes'/>
    <elf-symbol name='_ZSt7forwardIRKbEOT_RNSt16remove_referenceIS2_E4typeE' type='func-type' binding='weak-binding' visibility='default-visibility' is-defined='yes'/>
    <elf-symbol name='_ZSt7forwardIRKdEOT_RNSt16remove_referenceIS2_E4typeE' type='func-type' binding='weak-binding' visibility='default-visibility' is-defined='yes'/>
    <elf-symbol name='_ZSt7forwardIRKfEOT_RNSt16remove_referenceIS2_E4typeE' type='func-type' binding='weak-binding' visibility='default-visibility' is-defined='yes'/>
    <elf-symbol name='_ZSt7forwardIRKhEOT_RNSt16remove_referenceIS2_E4typeE' type='func-type' binding='weak-binding' visibility='default-visibility' is-defined='yes'/>
    <elf-symbol name='_ZSt7forwardIRKiEOT_RNSt16remove_referenceIS2_E4typeE' type='func-type' binding='weak-binding' visibility='default-visibility' is-defined='yes'/>
    <elf-symbol name='_ZSt7forwardIRKjEOT_RNSt16remove_referenceIS2_E4typeE' type='func-type' binding='weak-binding' visibility='default-visibility' is-defined='yes'/>
    <elf-symbol name='_ZSt7forwardIRKlEOT_RNSt16remove_referenceIS2_E4typeE' type='func-type' binding='weak-binding' visibility='default-visibility' is-defined='yes'/>
    <elf-symbol name='_ZSt7forwardIRKmEOT_RNSt16remove_referenceIS2_E4typeE' type='func-type' binding='weak-binding' visibility='default-visibility' is-defined='yes'/>
    <elf-symbol name='_ZSt7forwardIRKsEOT_RNSt16remove_referenceIS2_E4typeE' type='func-type' binding='weak-binding' visibility='default-visibility' is-defined='yes'/>
    <elf-symbol name='_ZSt7forwardIRKtEOT_RNSt16remove_referenceIS2_E4typeE' type='func-type' binding='weak-binding' visibility='default-visibility' is-defined='yes'/>
    <elf-symbol name='_ZSt7forwardIRN2PJ25DataSourceRuntimeHostViewEEOT_RNSt16remove_referenceIS3_E4typeE' type='func-type' binding='weak-binding' visibility='default-visibility' is-defined='yes'/>
    <elf-symbol name='_ZSt7forwardIRN2PJ3sdk19SourceWriteHostViewEEOT_RNSt16remove_referenceIS4_E4typeE' type='func-type' binding='weak-binding' visibility='default-visibility' is-defined='yes'/>
    <elf-symbol name='_ZSt7forwardIRNSt7__cxx1112basic_stringIcSt11char_traitsIcESaIcEEEEOT_RNSt16remove_referenceIS7_E4typeE' type='func-type' binding='weak-binding' visibility='default-visibility' is-defined='yes'/>
    <elf-symbol name='_ZSt7forwardIRNSt8__detail9__variant15_Variadic_unionIJ17PJ_topic_handle_tNSt7__cxx1112basic_stringIcSt11char_traitsIcESaIcEEEEEEEOT_RNSt16remove_referenceISC_E4typeE' type='func-type' binding='weak-binding' visibility='default-visibility' is-defined='yes'/>
    <elf-symbol name='_ZSt7forwardIRNSt8__detail9__variant15_Variadic_unionIJ26PJ_parser_binding_handle_tNSt7__cxx1112basic_stringIcSt11char_traitsIcESaIcEEEEEEEOT_RNSt16remove_referenceISC_E4typeE' type='func-type' binding='weak-binding' visibility='default-visibility' is-defined='yes'/>
    <elf-symbol name='_ZSt7forwardIRNSt8__detail9__variant15_Variadic_unionIJN2PJ25DataSourceRuntimeHostViewENSt7__cxx1112basic_stringIcSt11char_traitsIcESaIcEEEEEEEOT_RNSt16remove_referenceISD_E4typeE' type='func-type' binding='weak-binding' visibility='default-visibility' is-defined='yes'/>
    <elf-symbol name='_ZSt7forwardIRNSt8__detail9__variant15_Variadic_unionIJN2PJ3sdk19SourceWriteHostViewENSt7__cxx1112basic_stringIcSt11char_traitsIcESaIcEEEEEEEOT_RNSt16remove_referenceISE_E4typeE' type='func-type' binding='weak-binding' visibility='default-visibility' is-defined='yes'/>
    <elf-symbol name='_ZSt7forwardIRNSt8__detail9__variant15_Variadic_unionIJNSt7__cxx1112basic_stringIcSt11char_traitsIcESaIcEEEEEEEOT_RNSt16remove_referenceISB_E4typeE' type='func-type' binding='weak-binding' visibility='default-visibility' is-defined='yes'/>
    <elf-symbol name='_ZSt7forwardIRSt7variantIJ17PJ_topic_handle_tNSt7__cxx1112basic_stringIcSt11char_traitsIcESaIcEEEEEEOT_RNSt16remove_referenceISA_E4typeE' type='func-type' binding='weak-binding' visibility='default-visibility' is-defined='yes'/>
    <elf-symbol name='_ZSt7forwardIRSt7variantIJ26PJ_parser_binding_handle_tNSt7__cxx1112basic_stringIcSt11char_traitsIcESaIcEEEEEEOT_RNSt16remove_referenceISA_E4typeE' type='func-type' binding='weak-binding' visibility='default-visibility' is-defined='yes'/>
    <elf-symbol name='_ZSt7forwardIRSt7variantIJN2PJ25DataSourceRuntimeHostViewENSt7__cxx1112basic_stringIcSt11char_traitsIcESaIcEEEEEEOT_RNSt16remove_referenceISB_E4typeE' type='func-type' binding='weak-binding' visibility='default-visibility' is-defined='yes'/>
    <elf-symbol name='_ZSt7forwardIRSt7variantIJN2PJ3sdk19SourceWriteHostViewENSt7__cxx1112basic_stringIcSt11char_traitsIcESaIcEEEEEEOT_RNSt16remove_referenceISC_E4typeE' type='func-type' binding='weak-binding' visibility='default-visibility' is-defined='yes'/>
    <elf-symbol name='_ZSt7forwardIZN2PJ3sdk11toAbiScalarERKSt7variantIJNS0_9NullValueENS1_9TypedNullEfdasilhtjmbSt17basic_string_viewIcSt11char_traitsIcEEEEEUlOT_E_ESD_RNSt16remove_referenceISC_E4typeE' type='func-type' binding='weak-binding' visibility='default-visibility' is-defined='yes'/>
    <elf-symbol name='_ZSt7forwardIZN2PJ3sdk6typeOfERKSt7variantIJNS0_9NullValueENS1_9TypedNullEfdasilhtjmbSt17basic_string_viewIcSt11char_traitsIcEEEEEUlOT_E_ESD_RNSt16remove_referenceISC_E4typeE' type='func-type' binding='weak-binding' visibility='default-visibility' is-defined='yes'/>
    <elf-symbol name='_ZSt7forwardIZNSt8__detail9__variant16_Variant_storageILb0EJ17PJ_topic_handle_tNSt7__cxx1112basic_stringIcSt11char_traitsIcESaIcEEEEE8_M_resetEvEUlOT_E_ESC_RNSt16remove_referenceISB_E4typeE' type='func-type' binding='weak-binding' visibility='default-visibility' is-defined='yes'/>
    <elf-symbol name='_ZSt7forwardIZNSt8__detail9__variant16_Variant_storageILb0EJ26PJ_parser_binding_handle_tNSt7__cxx1112basic_stringIcSt11char_traitsIcESaIcEEEEE8_M_resetEvEUlOT_E_ESC_RNSt16remove_referenceISB_E4typeE' type='func-type' binding='weak-binding' visibility='default-visibility' is-defined='yes'/>
    <elf-symbol name='_ZSt7forwardIZNSt8__detail9__variant16_Variant_storageILb0EJN2PJ25DataSourceRuntimeHostViewENSt7__cxx1112basic_stringIcSt11char_traitsIcESaIcEEEEE8_M_resetEvEUlOT_E_ESD_RNSt16remove_referenceISC_E4typeE' type='func-type' binding='weak-binding' visibility='default-visibility' is-defined='yes'/>
    <elf-symbol name='_ZSt7forwardIZNSt8__detail9__variant16_Variant_storageILb0EJN2PJ3sdk19SourceWriteHostViewENSt7__cxx1112basic_stringIcSt11char_traitsIcESaIcEEEEE8_M_resetEvEUlOT_E_ESE_RNSt16remove_referenceISD_E4typeE' type='func-type' binding='weak-binding' visibility='default-visibility' is-defined='yes'/>
    <elf-symbol name='_ZSt8_DestroyI17PJ_topic_handle_tEvPT_' type='func-type' binding='weak-binding' visibility='default-visibility' is-defined='yes'/>
    <elf-symbol name='_ZSt8_DestroyI22PJ_named_field_value_tEvPT_' type='func-type' binding='weak-binding' visibility='default-visibility' is-defined='yes'/>
    <elf-symbol name='_ZSt8_DestroyI26PJ_parser_binding_handle_tEvPT_' type='func-type' binding='weak-binding' visibility='default-visibility' is-defined='yes'/>
    <elf-symbol name='_ZSt8_DestroyIN2PJ25DataSourceRuntimeHostViewEEvPT_' type='func-type' binding='weak-binding' visibility='default-visibility' is-defined='yes'/>
    <elf-symbol name='_ZSt8_DestroyIN2PJ3sdk19SourceWriteHostViewEEvPT_' type='func-type' binding='weak-binding' visibility='default-visibility' is-defined='yes'/>
    <elf-symbol name='_ZSt8_DestroyINSt7__cxx1112basic_stringIcSt11char_traitsIcESaIcEEEEvPT_' type='func-type' binding='weak-binding' visibility='default-visibility' is-defined='yes'/>
    <elf-symbol name='_ZSt8_DestroyIP22PJ_named_field_value_tEvT_S2_' type='func-type' binding='weak-binding' visibility='default-visibility' is-defined='yes'/>
    <elf-symbol name='_ZSt8_DestroyIP22PJ_named_field_value_tS0_EvT_S2_RSaIT0_E' type='func-type' binding='weak-binding' visibility='default-visibility' is-defined='yes'/>
    <elf-symbol name='_ZSt8__invokeIZN2PJ3sdk11toAbiScalarERKSt7variantIJNS0_9NullValueENS1_9TypedNullEfdasilhtjmbSt17basic_string_viewIcSt11char_traitsIcEEEEEUlOT_E_JRKS3_EENSt15__invoke_resultISC_JDpT0_EE4typeESD_DpOSI_' type='func-type' binding='weak-binding' visibility='default-visibility' is-defined='yes'/>
    <elf-symbol name='_ZSt8__invokeIZN2PJ3sdk11toAbiScalarERKSt7variantIJNS0_9NullValueENS1_9TypedNullEfdasilhtjmbSt17basic_string_viewIcSt11char_traitsIcEEEEEUlOT_E_JRKS4_EENSt15__invoke_resultISC_JDpT0_EE4typeESD_DpOSI_' type='func-type' binding='weak-binding' visibility='default-visibility' is-defined='yes'/>
    <elf-symbol name='_ZSt8__invokeIZN2PJ3sdk11toAbiScalarERKSt7variantIJNS0_9NullValueENS1_9TypedNullEfdasilhtjmbSt17basic_string_viewIcSt11char_traitsIcEEEEEUlOT_E_JRKS8_EENSt15__invoke_resultISC_JDpT0_EE4typeESD_DpOSI_' type='func-type' binding='weak-binding' visibility='default-visibility' is-defined='yes'/>
    <elf-symbol name='_ZSt8__invokeIZN2PJ3sdk11toAbiScalarERKSt7variantIJNS0_9NullValueENS1_9TypedNullEfdasilhtjmbSt17basic_string_viewIcSt11char_traitsIcEEEEEUlOT_E_JRKaEENSt15__invoke_resultISC_JDpT0_EE4typeESD_DpOSI_' type='func-type' binding='weak-binding' visibility='default-visibility' is-defined='yes'/>
    <elf-symbol name='_ZSt8__invokeIZN2PJ3sdk11toAbiScalarERKSt7variantIJNS0_9NullValueENS1_9TypedNullEfdasilhtjmbSt17basic_string_viewIcSt11char_traitsIcEEEEEUlOT_E_JRKbEENSt15__invoke_resultISC_JDpT0_EE4typeESD_DpOSI_' type='func-type' binding='weak-binding' visibility='default-visibility' is-defined='yes'/>
    <elf-symbol name='_ZSt8__invokeIZN2PJ3sdk11toAbiScalarERKSt7variantIJNS0_9NullValueENS1_9TypedNullEfdasilhtjmbSt17basic_string_viewIcSt11char_traitsIcEEEEEUlOT_E_JRKdEENSt15__invoke_resultISC_JDpT0_EE4typeESD_DpOSI_' type='func-type' binding='weak-binding' visibility='default-visibility' is-defined='yes'/>
    <elf-symbol name='_ZSt8__invokeIZN2PJ3sdk11toAbiScalarERKSt7variantIJNS0_9NullValueENS1_9TypedNullEfdasilhtjmbSt17basic_string_viewIcSt11char_traitsIcEEEEEUlOT_E_JRKfEENSt15__invoke_resultISC_JDpT0_EE4typeESD_DpOSI_' type='func-type' binding='weak-binding' visibility='default-visibility' is-defined='yes'/>
    <elf-symbol name='_ZSt8__invokeIZN2PJ3sdk11toAbiScalarERKSt7variantIJNS0_9NullValueENS1_9TypedNullEfdasilhtjmbSt17basic_string_viewIcSt11char_traitsIcEEEEEUlOT_E_JRKhEENSt15__invoke_resultISC_JDpT0_EE4typeESD_DpOSI_' type='func-type' binding='weak-binding' visibility='default-visibility' is-defined='yes'/>
    <elf-symbol name='_ZSt8__invokeIZN2PJ3sdk11toAbiScalarERKSt7variantIJNS0_9NullValueENS1_9TypedNullEfdasilhtjmbSt17basic_string_viewIcSt11char_traitsIcEEEEEUlOT_E_JRKiEENSt15__invoke_resultISC_JDpT0_EE4typeESD_DpOSI_' type='func-type' binding='weak-binding' visibility='default-visibility' is-defined='yes'/>
    <elf-symbol name='_ZSt8__invokeIZN2PJ3sdk11toAbiScalarERKSt7variantIJNS0_9NullValueENS1_9TypedNullEfdasilhtjmbSt17basic_string_viewIcSt11char_traitsIcEEEEEUlOT_E_JRKjEENSt15__invoke_resultISC_JDpT0_EE4typeESD_DpOSI_' type='func-type' binding='weak-binding' visibility='default-visibility' is-defined='yes'/>
    <elf-symbol name='_ZSt8__invokeIZN2PJ3sdk11toAbiScalarERKSt7variantIJNS0_9NullValueENS1_9TypedNullEfdasilhtjmbSt17basic_string_viewIcSt11char_traitsIcEEEEEUlOT_E_JRKlEENSt15__invoke_resultISC_JDpT0_EE4typeESD_DpOSI_' type='func-type' binding='weak-binding' visibility='default-visibility' is-defined='yes'/>
    <elf-symbol name='_ZSt8__invokeIZN2PJ3sdk11toAbiScalarERKSt7variantIJNS0_9NullValueENS1_9TypedNullEfdasilhtjmbSt17basic_string_viewIcSt11char_traitsIcEEEEEUlOT_E_JRKmEENSt15__invoke_resultISC_JDpT0_EE4typeESD_DpOSI_' type='func-type' binding='weak-binding' visibility='default-visibility' is-defined='yes'/>
    <elf-symbol name='_ZSt8__invokeIZN2PJ3sdk11toAbiScalarERKSt7variantIJNS0_9NullValueENS1_9TypedNullEfdasilhtjmbSt17basic_string_viewIcSt11char_traitsIcEEEEEUlOT_E_JRKsEENSt15__invoke_resultISC_JDpT0_EE4typeESD_DpOSI_' type='func-type' binding='weak-binding' visibility='default-visibility' is-defined='yes'/>
    <elf-symbol name='_ZSt8__invokeIZN2PJ3sdk11toAbiScalarERKSt7variantIJNS0_9NullValueENS1_9TypedNullEfdasilhtjmbSt17basic_string_viewIcSt11char_traitsIcEEEEEUlOT_E_JRKtEENSt15__invoke_resultISC_JDpT0_EE4typeESD_DpOSI_' type='func-type' binding='weak-binding' visibility='default-visibility' is-defined='yes'/>
    <elf-symbol name='_ZSt8__invokeIZN2PJ3sdk6typeOfERKSt7variantIJNS0_9NullValueENS1_9TypedNullEfdasilhtjmbSt17basic_string_viewIcSt11char_traitsIcEEEEEUlOT_E_JRKS3_EENSt15__invoke_resultISC_JDpT0_EE4typeESD_DpOSI_' type='func-type' binding='weak-binding' visibility='default-visibility' is-defined='yes'/>
    <elf-symbol name='_ZSt8__invokeIZN2PJ3sdk6typeOfERKSt7variantIJNS0_9NullValueENS1_9TypedNullEfdasilhtjmbSt17basic_string_viewIcSt11char_traitsIcEEEEEUlOT_E_JRKS4_EENSt15__invoke_resultISC_JDpT0_EE4typeESD_DpOSI_' type='func-type' binding='weak-binding' visibility='default-visibility' is-defined='yes'/>
    <elf-symbol name='_ZSt8__invokeIZN2PJ3sdk6typeOfERKSt7variantIJNS0_9NullValueENS1_9TypedNullEfdasilhtjmbSt17basic_string_viewIcSt11char_traitsIcEEEEEUlOT_E_JRKS8_EENSt15__invoke_resultISC_JDpT0_EE4typeESD_DpOSI_' type='func-type' binding='weak-binding' visibility='default-visibility' is-defined='yes'/>
    <elf-symbol name='_ZSt8__invokeIZN2PJ3sdk6typeOfERKSt7variantIJNS0_9NullValueENS1_9TypedNullEfdasilhtjmbSt17basic_string_viewIcSt11char_traitsIcEEEEEUlOT_E_JRKaEENSt15__invoke_resultISC_JDpT0_EE4typeESD_DpOSI_' type='func-type' binding='weak-binding' visibility='default-visibility' is-defined='yes'/>
    <elf-symbol name='_ZSt8__invokeIZN2PJ3sdk6typeOfERKSt7variantIJNS0_9NullValueENS1_9TypedNullEfdasilhtjmbSt17basic_string_viewIcSt11char_traitsIcEEEEEUlOT_E_JRKbEENSt15__invoke_resultISC_JDpT0_EE4typeESD_DpOSI_' type='func-type' binding='weak-binding' visibility='default-visibility' is-defined='yes'/>
    <elf-symbol name='_ZSt8__invokeIZN2PJ3sdk6typeOfERKSt7variantIJNS0_9NullValueENS1_9TypedNullEfdasilhtjmbSt17basic_string_viewIcSt11char_traitsIcEEEEEUlOT_E_JRKdEENSt15__invoke_resultISC_JDpT0_EE4typeESD_DpOSI_' type='func-type' binding='weak-binding' visibility='default-visibility' is-defined='yes'/>
    <elf-symbol name='_ZSt8__invokeIZN2PJ3sdk6typeOfERKSt7variantIJNS0_9NullValueENS1_9TypedNullEfdasilhtjmbSt17basic_string_viewIcSt11char_traitsIcEEEEEUlOT_E_JRKfEENSt15__invoke_resultISC_JDpT0_EE4typeESD_DpOSI_' type='func-type' binding='weak-binding' visibility='default-visibility' is-defined='yes'/>
    <elf-symbol name='_ZSt8__invokeIZN2PJ3sdk6typeOfERKSt7variantIJNS0_9NullValueENS1_9TypedNullEfdasilhtjmbSt17basic_string_viewIcSt11char_traitsIcEEEEEUlOT_E_JRKhEENSt15__invoke_resultISC_JDpT0_EE4typeESD_DpOSI_' type='func-type' binding='weak-binding' visibility='default-visibility' is-defined='yes'/>
    <elf-symbol name='_ZSt8__invokeIZN2PJ3sdk6typeOfERKSt7variantIJNS0_9NullValueENS1_9TypedNullEfdasilhtjmbSt17basic_string_viewIcSt11char_traitsIcEEEEEUlOT_E_JRKiEENSt15__invoke_resultISC_JDpT0_EE4typeESD_DpOSI_' type='func-type' binding='weak-binding' visibility='default-visibility' is-defined='yes'/>
    <elf-symbol name='_ZSt8__invokeIZN2PJ3sdk6typeOfERKSt7variantIJNS0_9NullValueENS1_9TypedNullEfdasilhtjmbSt17basic_string_viewIcSt11char_traitsIcEEEEEUlOT_E_JRKjEENSt15__invoke_resultISC_JDpT0_EE4typeESD_DpOSI_' type='func-type' binding='weak-binding' visibility='default-visibility' is-defined='yes'/>
    <elf-symbol name='_ZSt8__invokeIZN2PJ3sdk6typeOfERKSt7variantIJNS0_9NullValueENS1_9TypedNullEfdasilhtjmbSt17basic_string_viewIcSt11char_traitsIcEEEEEUlOT_E_JRKlEENSt15__invoke_resultISC_JDpT0_EE4typeESD_DpOSI_' type='func-type' binding='weak-binding' visibility='default-visibility' is-defined='yes'/>
    <elf-symbol name='_ZSt8__invokeIZN2PJ3sdk6typeOfERKSt7variantIJNS0_9NullValueENS1_9TypedNullEfdasilhtjmbSt17basic_string_viewIcSt11char_traitsIcEEEEEUlOT_E_JRKmEENSt15__invoke_resultISC_JDpT0_EE4typeESD_DpOSI_' type='func-type' binding='weak-binding' visibility='default-visibility' is-defined='yes'/>
    <elf-symbol name='_ZSt8__invokeIZN2PJ3sdk6typeOfERKSt7variantIJNS0_9NullValueENS1_9TypedNullEfdasilhtjmbSt17basic_string_viewIcSt11char_traitsIcEEEEEUlOT_E_JRKsEENSt15__invoke_resultISC_JDpT0_EE4typeESD_DpOSI_' type='func-type' binding='weak-binding' visibility='default-visibility' is-defined='yes'/>
    <elf-symbol name='_ZSt8__invokeIZN2PJ3sdk6typeOfERKSt7variantIJNS0_9NullValueENS1_9TypedNullEfdasilhtjmbSt17basic_string_viewIcSt11char_traitsIcEEEEEUlOT_E_JRKtEENSt15__invoke_resultISC_JDpT0_EE4typeESD_DpOSI_' type='func-type' binding='weak-binding' visibility='default-visibility' is-defined='yes'/>
    <elf-symbol name='_ZSt8distanceIPKcENSt15iterator_traitsIT_E15difference_typeES3_S3_' type='func-type' binding='weak-binding' visibility='default-visibility' is-defined='yes'/>
    <elf-symbol name='_ZSt8distanceIPcENSt15iterator_traitsIT_E15difference_typeES2_S2_' type='func-type' binding='weak-binding' visibility='default-visibility' is-defined='yes'/>
    <elf-symbol name='_ZSt9addressofIKcEPT_RS1_' type='func-type' binding='weak-binding' visibility='default-visibility' is-defined='yes'/>
    <elf-symbol name='_ZSt9addressofIN9__gnu_cxx16__aligned_membufINSt7__cxx1112basic_stringIcSt11char_traitsIcESaIcEEEEEEPT_RS9_' type='func-type' binding='weak-binding' visibility='default-visibility' is-defined='yes'/>
    <elf-symbol name='_ZSt9addressofIcEPT_RS0_' type='func-type' binding='weak-binding' visibility='default-visibility' is-defined='yes'/>
    <elf-symbol name='_ZSteqRKSaIcES1_' type='func-type' binding='weak-binding' visibility='default-visibility' is-defined='yes'/>
    <elf-symbol name='_ZStplIcSt11char_traitsIcESaIcEENSt7__cxx1112basic_stringIT_T0_T1_EEOS8_PKS5_' type='func-type' binding='weak-binding' visibility='default-visibility' is-defined='yes'/>
    <elf-symbol name='_ZZN2PJ3sdk11toAbiScalarERKSt7variantIJNS_9NullValueENS0_9TypedNullEfdasilhtjmbSt17basic_string_viewIcSt11char_traitsIcEEEEENKUlOT_E_clIRKS2_EEDaSC_' type='func-type' binding='weak-binding' visibility='default-visibility' is-defined='yes'/>
    <elf-symbol name='_ZZN2PJ3sdk11toAbiScalarERKSt7variantIJNS_9NullValueENS0_9TypedNullEfdasilhtjmbSt17basic_string_viewIcSt11char_traitsIcEEEEENKUlOT_E_clIRKS3_EEDaSC_' type='func-type' binding='weak-binding' visibility='default-visibility' is-defined='yes'/>
    <elf-symbol name='_ZZN2PJ3sdk11toAbiScalarERKSt7variantIJNS_9NullValueENS0_9TypedNullEfdasilhtjmbSt17basic_string_viewIcSt11char_traitsIcEEEEENKUlOT_E_clIRKS7_EEDaSC_' type='func-type' binding='weak-binding' visibility='default-visibility' is-defined='yes'/>
    <elf-symbol name='_ZZN2PJ3sdk11toAbiScalarERKSt7variantIJNS_9NullValueENS0_9TypedNullEfdasilhtjmbSt17basic_string_viewIcSt11char_traitsIcEEEEENKUlOT_E_clIRKaEEDaSC_' type='func-type' binding='weak-binding' visibility='default-visibility' is-defined='yes'/>
    <elf-symbol name='_ZZN2PJ3sdk11toAbiScalarERKSt7variantIJNS_9NullValueENS0_9TypedNullEfdasilhtjmbSt17basic_string_viewIcSt11char_traitsIcEEEEENKUlOT_E_clIRKbEEDaSC_' type='func-type' binding='weak-binding' visibility='default-visibility' is-defined='yes'/>
    <elf-symbol name='_ZZN2PJ3sdk11toAbiScalarERKSt7variantIJNS_9NullValueENS0_9TypedNullEfdasilhtjmbSt17basic_string_viewIcSt11char_traitsIcEEEEENKUlOT_E_clIRKdEEDaSC_' type='func-type' binding='weak-binding' visibility='default-visibility' is-defined='yes'/>
    <elf-symbol name='_ZZN2PJ3sdk11toAbiScalarERKSt7variantIJNS_9NullValueENS0_9TypedNullEfdasilhtjmbSt17basic_string_viewIcSt11char_traitsIcEEEEENKUlOT_E_clIRKfEEDaSC_' type='func-type' binding='weak-binding' visibility='default-visibility' is-defined='yes'/>
    <elf-symbol name='_ZZN2PJ3sdk11toAbiScalarERKSt7variantIJNS_9NullValueENS0_9TypedNullEfdasilhtjmbSt17basic_string_viewIcSt11char_traitsIcEEEEENKUlOT_E_clIRKhEEDaSC_' type='func-type' binding='weak-binding' visibility='default-visibility' is-defined='yes'/>
    <elf-symbol name='_ZZN2PJ3sdk11toAbiScalarERKSt7variantIJNS_9NullValueENS0_9TypedNullEfdasilhtjmbSt17basic_string_viewIcSt11char_traitsIcEEEEENKUlOT_E_clIRKiEEDaSC_' type='func-type' binding='weak-binding' visibility='default-visibility' is-defined='yes'/>
    <elf-symbol name='_ZZN2PJ3sdk11toAbiScalarERKSt7variantIJNS_9NullValueENS0_9TypedNullEfdasilhtjmbSt17basic_string_viewIcSt11char_traitsIcEEEEENKUlOT_E_clIRKjEEDaSC_' type='func-type' binding='weak-binding' visibility='default-visibility' is-defined='yes'/>
    <elf-symbol name='_ZZN2PJ3sdk11toAbiScalarERKSt7variantIJNS_9NullValueENS0_9TypedNullEfdasilhtjmbSt17basic_string_viewIcSt11char_traitsIcEEEEENKUlOT_E_clIRKlEEDaSC_' type='func-type' binding='weak-binding' visibility='default-visibility' is-defined='yes'/>
    <elf-symbol name='_ZZN2PJ3sdk11toAbiScalarERKSt7variantIJNS_9NullValueENS0_9TypedNullEfdasilhtjmbSt17basic_string_viewIcSt11char_traitsIcEEEEENKUlOT_E_clIRKmEEDaSC_' type='func-type' binding='weak-binding' visibility='default-visibility' is-defined='yes'/>
    <elf-symbol name='_ZZN2PJ3sdk11toAbiScalarERKSt7variantIJNS_9NullValueENS0_9TypedNullEfdasilhtjmbSt17basic_string_viewIcSt11char_traitsIcEEEEENKUlOT_E_clIRKsEEDaSC_' type='func-type' binding='weak-binding' visibility='default-visibility' is-defined='yes'/>
    <elf-symbol name='_ZZN2PJ3sdk11toAbiScalarERKSt7variantIJNS_9NullValueENS0_9TypedNullEfdasilhtjmbSt17basic_string_viewIcSt11char_traitsIcEEEEENKUlOT_E_clIRKtEEDaSC_' type='func-type' binding='weak-binding' visibility='default-visibility' is-defined='yes'/>
    <elf-symbol name='_ZZN2PJ3sdk6typeOfERKSt7variantIJNS_9NullValueENS0_9TypedNullEfdasilhtjmbSt17basic_string_viewIcSt11char_traitsIcEEEEENKUlOT_E_clIRKS2_EENS_13PrimitiveTypeESC_' type='func-type' binding='weak-binding' visibility='default-visibility' is-defined='yes'/>
    <elf-symbol name='_ZZN2PJ3sdk6typeOfERKSt7variantIJNS_9NullValueENS0_9TypedNullEfdasilhtjmbSt17basic_string_viewIcSt11char_traitsIcEEEEENKUlOT_E_clIRKS3_EENS_13PrimitiveTypeESC_' type='func-type' binding='weak-binding' visibility='default-visibility' is-defined='yes'/>
    <elf-symbol name='_ZZN2PJ3sdk6typeOfERKSt7variantIJNS_9NullValueENS0_9TypedNullEfdasilhtjmbSt17basic_string_viewIcSt11char_traitsIcEEEEENKUlOT_E_clIRKS7_EENS_13PrimitiveTypeESC_' type='func-type' binding='weak-binding' visibility='default-visibility' is-defined='yes'/>
    <elf-symbol name='_ZZN2PJ3sdk6typeOfERKSt7variantIJNS_9NullValueENS0_9TypedNullEfdasilhtjmbSt17basic_string_viewIcSt11char_traitsIcEEEEENKUlOT_E_clIRKaEENS_13PrimitiveTypeESC_' type='func-type' binding='weak-binding' visibility='default-visibility' is-defined='yes'/>
    <elf-symbol name='_ZZN2PJ3sdk6typeOfERKSt7variantIJNS_9NullValueENS0_9TypedNullEfdasilhtjmbSt17basic_string_viewIcSt11char_traitsIcEEEEENKUlOT_E_clIRKbEENS_13PrimitiveTypeESC_' type='func-type' binding='weak-binding' visibility='default-visibility' is-defined='yes'/>
    <elf-symbol name='_ZZN2PJ3sdk6typeOfERKSt7variantIJNS_9NullValueENS0_9TypedNullEfdasilhtjmbSt17basic_string_viewIcSt11char_traitsIcEEEEENKUlOT_E_clIRKdEENS_13PrimitiveTypeESC_' type='func-type' binding='weak-binding' visibility='default-visibility' is-defined='yes'/>
    <elf-symbol name='_ZZN2PJ3sdk6typeOfERKSt7variantIJNS_9NullValueENS0_9TypedNullEfdasilhtjmbSt17basic_string_viewIcSt11char_traitsIcEEEEENKUlOT_E_clIRKfEENS_13PrimitiveTypeESC_' type='func-type' binding='weak-binding' visibility='default-visibility' is-defined='yes'/>
    <elf-symbol name='_ZZN2PJ3sdk6typeOfERKSt7variantIJNS_9NullValueENS0_9TypedNullEfdasilhtjmbSt17basic_string_viewIcSt11char_traitsIcEEEEENKUlOT_E_clIRKhEENS_13PrimitiveTypeESC_' type='func-type' binding='weak-binding' visibility='default-visibility' is-defined='yes'/>
    <elf-symbol name='_ZZN2PJ3sdk6typeOfERKSt7variantIJNS_9NullValueENS0_9TypedNullEfdasilhtjmbSt17basic_string_viewIcSt11char_traitsIcEEEEENKUlOT_E_clIRKiEENS_13PrimitiveTypeESC_' type='func-type' binding='weak-binding' visibility='default-visibility' is-defined='yes'/>
    <elf-symbol name='_ZZN2PJ3sdk6typeOfERKSt7variantIJNS_9NullValueENS0_9TypedNullEfdasilhtjmbSt17basic_string_viewIcSt11char_traitsIcEEEEENKUlOT_E_clIRKjEENS_13PrimitiveTypeESC_' type='func-type' binding='weak-binding' visibility='default-visibility' is-defined='yes'/>
    <elf-symbol name='_ZZN2PJ3sdk6typeOfERKSt7variantIJNS_9NullValueENS0_9TypedNullEfdasilhtjmbSt17basic_string_viewIcSt11char_traitsIcEEEEENKUlOT_E_clIRKlEENS_13PrimitiveTypeESC_' type='func-type' binding='weak-binding' visibility='default-visibility' is-defined='yes'/>
    <elf-symbol name='_ZZN2PJ3sdk6typeOfERKSt7variantIJNS_9NullValueENS0_9TypedNullEfdasilhtjmbSt17basic_string_viewIcSt11char_traitsIcEEEEENKUlOT_E_clIRKmEENS_13PrimitiveTypeESC_' type='func-type' binding='weak-binding' visibility='default-visibility' is-defined='yes'/>
    <elf-symbol name='_ZZN2PJ3sdk6typeOfERKSt7variantIJNS_9NullValueENS0_9TypedNullEfdasilhtjmbSt17basic_string_viewIcSt11char_traitsIcEEEEENKUlOT_E_clIRKsEENS_13PrimitiveTypeESC_' type='func-type' binding='weak-binding' visibility='default-visibility' is-defined='yes'/>
    <elf-symbol name='_ZZN2PJ3sdk6typeOfERKSt7variantIJNS_9NullValueENS0_9TypedNullEfdasilhtjmbSt17basic_string_viewIcSt11char_traitsIcEEEEENKUlOT_E_clIRKtEENS_13PrimitiveTypeESC_' type='func-type' binding='weak-binding' visibility='default-visibility' is-defined='yes'/>
    <elf-symbol name='_ZZNSt8__detail9__variant16_Variant_storageILb0EJ17PJ_topic_handle_tNSt7__cxx1112basic_stringIcSt11char_traitsIcESaIcEEEEE8_M_resetEvENUlOT_E_clIRS2_EEDaSB_' type='func-type' binding='weak-binding' visibility='default-visibility' is-defined='yes'/>
    <elf-symbol name='_ZZNSt8__detail9__variant16_Variant_storageILb0EJ17PJ_topic_handle_tNSt7__cxx1112basic_stringIcSt11char_traitsIcESaIcEEEEE8_M_resetEvENUlOT_E_clIRS8_EEDaSB_' type='func-type' binding='weak-binding' visibility='default-visibility' is-defined='yes'/>
    <elf-symbol name='_ZZNSt8__detail9__variant16_Variant_storageILb0EJ26PJ_parser_binding_handle_tNSt7__cxx1112basic_stringIcSt11char_traitsIcESaIcEEEEE8_M_resetEvENUlOT_E_clIRS2_EEDaSB_' type='func-type' binding='weak-binding' visibility='default-visibility' is-defined='yes'/>
    <elf-symbol name='_ZZNSt8__detail9__variant16_Variant_storageILb0EJ26PJ_parser_binding_handle_tNSt7__cxx1112basic_stringIcSt11char_traitsIcESaIcEEEEE8_M_resetEvENUlOT_E_clIRS8_EEDaSB_' type='func-type' binding='weak-binding' visibility='default-visibility' is-defined='yes'/>
    <elf-symbol name='_ZZNSt8__detail9__variant16_Variant_storageILb0EJN2PJ25DataSourceRuntimeHostViewENSt7__cxx1112basic_stringIcSt11char_traitsIcESaIcEEEEE8_M_resetEvENUlOT_E_clIRS3_EEDaSC_' type='func-type' binding='weak-binding' visibility='default-visibility' is-defined='yes'/>
    <elf-symbol name='_ZZNSt8__detail9__variant16_Variant_storageILb0EJN2PJ25DataSourceRuntimeHostViewENSt7__cxx1112basic_stringIcSt11char_traitsIcESaIcEEEEE8_M_resetEvENUlOT_E_clIRS9_EEDaSC_' type='func-type' binding='weak-binding' visibility='default-visibility' is-defined='yes'/>
    <elf-symbol name='_ZZNSt8__detail9__variant16_Variant_storageILb0EJN2PJ3sdk19SourceWriteHostViewENSt7__cxx1112basic_stringIcSt11char_traitsIcESaIcEEEEE8_M_resetEvENUlOT_E_clIRS4_EEDaSD_' type='func-type' binding='weak-binding' visibility='default-visibility' is-defined='yes'/>
    <elf-symbol name='_ZZNSt8__detail9__variant16_Variant_storageILb0EJN2PJ3sdk19SourceWriteHostViewENSt7__cxx1112basic_stringIcSt11char_traitsIcESaIcEEEEE8_M_resetEvENUlOT_E_clIRSA_EEDaSD_' type='func-type' binding='weak-binding' visibility='default-visibility' is-defined='yes'/>
    <elf-symbol name='_ZnwmPv' type='func-type' binding='weak-binding' visibility='default-visibility' is-defined='yes'/>
  </elf-function-symbols>
  <elf-variable-symbols>
    <elf-symbol name='_ZNSt8__detail9__variant12__gen_vtableINS0_21__deduce_visit_resultIN2PJ13PrimitiveTypeEEEOZNS3_3sdk6typeOfERKSt7variantIJNS3_9NullValueENS6_9TypedNullEfdasilhtjmbSt17basic_string_viewIcSt11char_traitsIcEEEEEUlOT_E_JSG_EE9_S_vtableE' size='112' type='object-type' binding='gnu-unique-binding' visibility='default-visibility' is-defined='yes'/>
    <elf-symbol name='_ZNSt8__detail9__variant12__gen_vtableINS0_21__deduce_visit_resultIvEEOZN2PJ3sdk11toAbiScalarERKSt7variantIJNS4_9NullValueENS5_9TypedNullEfdasilhtjmbSt17basic_string_viewIcSt11char_traitsIcEEEEEUlOT_E_JSF_EE9_S_vtableE' size='112' type='object-type' binding='gnu-unique-binding' visibility='default-visibility' is-defined='yes'/>
    <elf-symbol name='_ZNSt8__detail9__variant12__gen_vtableIvOZNS0_16_Variant_storageILb0EJ17PJ_topic_handle_tNSt7__cxx1112basic_stringIcSt11char_traitsIcESaIcEEEEE8_M_resetEvEUlOT_E_JRSt7variantIJS3_S9_EEEE9_S_vtableE' size='16' type='object-type' binding='gnu-unique-binding' visibility='default-visibility' is-defined='yes'/>
    <elf-symbol name='_ZNSt8__detail9__variant12__gen_vtableIvOZNS0_16_Variant_storageILb0EJ26PJ_parser_binding_handle_tNSt7__cxx1112basic_stringIcSt11char_traitsIcESaIcEEEEE8_M_resetEvEUlOT_E_JRSt7variantIJS3_S9_EEEE9_S_vtableE' size='16' type='object-type' binding='gnu-unique-binding' visibility='default-visibility' is-defined='yes'/>
    <elf-symbol name='_ZNSt8__detail9__variant12__gen_vtableIvOZNS0_16_Variant_storageILb0EJN2PJ25DataSourceRuntimeHostViewENSt7__cxx1112basic_stringIcSt11char_traitsIcESaIcEEEEE8_M_resetEvEUlOT_E_JRSt7variantIJS4_SA_EEEE9_S_vtableE' size='16' type='object-type' binding='gnu-unique-binding' visibility='default-visibility' is-defined='yes'/>
    <elf-symbol name='_ZNSt8__detail9__variant12__gen_vtableIvOZNS0_16_Variant_storageILb0EJN2PJ3sdk19SourceWriteHostViewENSt7__cxx1112basic_stringIcSt11char_traitsIcESaIcEEEEE8_M_resetEvEUlOT_E_JRSt7variantIJS5_SB_EEEE9_S_vtableE' size='16' type='object-type' binding='gnu-unique-binding' visibility='default-visibility' is-defined='yes'/>
    <elf-symbol name='_ZTIN2PJ20DataSourcePluginBaseE' size='16' type='object-type' binding='weak-binding' visibility='default-visibility' is-defined='yes'/>
    <elf-symbol name='_ZTISt18bad_variant_access' size='24' type='object-type' binding='weak-binding' visibility='default-visibility' is-defined='yes'/>
    <elf-symbol name='_ZTSN2PJ20DataSourcePluginBaseE' size='28' type='object-type' binding='weak-binding' visibility='default-visibility' is-defined='yes'/>
    <elf-symbol name='_ZTSSt18bad_variant_access' size='23' type='object-type' binding='weak-binding' visibility='default-visibility' is-defined='yes'/>
    <elf-symbol name='_ZTVN2PJ20DataSourcePluginBaseE' size='128' type='object-type' binding='weak-binding' visibility='default-visibility' is-defined='yes'/>
    <elf-symbol name='_ZTVSt18bad_variant_access' size='40' type='object-type' binding='weak-binding' visibility='default-visibility' is-defined='yes'/>
    <elf-symbol name='__odr_asan.pj_plugin_abi_version' size='1' type='object-type' binding='global-binding' visibility='default-visibility' is-defined='yes'/>
    <elf-symbol name='pj_plugin_abi_version' size='4' type='object-type' binding='global-binding' visibility='default-visibility' is-defined='yes'/>
  </elf-variable-symbols>
  <abi-instr address-size='64' path='/home/davide/ws_plotjuggler/plotjuggler_core/pj_plugins/examples/mock_data_source.cpp' comp-dir-path='/home/davide/ws_plotjuggler/plotjuggler_core/build/debug_asan/pj_plugins' language='LANG_C_plus_plus_14'>
    <type-decl name='bool' size-in-bits='8' id='type-id-1'/>
    <type-decl name='char' size-in-bits='8' id='type-id-2'/>
    <array-type-def dimensions='1' type-id='type-id-2' size-in-bits='128' id='type-id-3'>
      <subrange length='16' type-id='type-id-4' id='type-id-5'/>
    </array-type-def>
    <array-type-def dimensions='1' type-id='type-id-2' size-in-bits='8' id='type-id-6'>
      <subrange length='1' type-id='type-id-4' id='type-id-7'/>
    </array-type-def>
    <array-type-def dimensions='1' type-id='type-id-2' size-in-bits='160' id='type-id-8'>
      <subrange length='20' type-id='type-id-4' id='type-id-9'/>
    </array-type-def>
    <array-type-def dimensions='1' type-id='type-id-2' size-in-bits='1792' id='type-id-10'>
      <subrange length='224' type-id='type-id-4' id='type-id-11'/>
    </array-type-def>
    <array-type-def dimensions='1' type-id='type-id-2' size-in-bits='256' id='type-id-12'>
      <subrange length='32' type-id='type-id-4' id='type-id-13'/>
    </array-type-def>
    <array-type-def dimensions='1' type-id='type-id-2' size-in-bits='32' id='type-id-14'>
      <subrange length='4' type-id='type-id-4' id='type-id-15'/>
    </array-type-def>
    <class-decl name='typedef __va_list_tag __va_list_tag' size-in-bits='192' is-struct='yes' visibility='default' id='type-id-16'>
      <data-member access='public' layout-offset-in-bits='0'>
        <var-decl name='gp_offset' type-id='type-id-17' visibility='default'/>
      </data-member>
      <data-member access='public' layout-offset-in-bits='32'>
        <var-decl name='fp_offset' type-id='type-id-17' visibility='default'/>
      </data-member>
      <data-member access='public' layout-offset-in-bits='64'>
        <var-decl name='overflow_arg_area' type-id='type-id-18' visibility='default'/>
      </data-member>
      <data-member access='public' layout-offset-in-bits='128'>
        <var-decl name='reg_save_area' type-id='type-id-18' visibility='default'/>
      </data-member>
    </class-decl>
    <type-decl name='double' size-in-bits='64' id='type-id-19'/>
    <type-decl name='float' size-in-bits='32' id='type-id-20'/>
    <type-decl name='int' size-in-bits='32' id='type-id-21'/>
    <type-decl name='long double' size-in-bits='128' id='type-id-22'/>
    <type-decl name='long int' size-in-bits='64' id='type-id-23'/>
    <type-decl name='long long int' size-in-bits='64' id='type-id-24'/>
    <type-decl name='long long unsigned int' size-in-bits='64' id='type-id-25'/>
    <type-decl name='short int' size-in-bits='16' id='type-id-26'/>
    <type-decl name='signed char' size-in-bits='8' id='type-id-27'/>
    <array-type-def dimensions='1' type-id='type-id-28' size-in-bits='896' id='type-id-29'>
      <subrange length='14' type-id='type-id-4' id='type-id-30'/>
    </array-type-def>
    <array-type-def dimensions='1' type-id='type-id-31' size-in-bits='896' id='type-id-32'>
      <subrange length='14' type-id='type-id-4' id='type-id-30'/>
    </array-type-def>
    <array-type-def dimensions='1' type-id='type-id-33' size-in-bits='128' id='type-id-34'>
      <subrange length='2' type-id='type-id-4' id='type-id-35'/>
    </array-type-def>
    <array-type-def dimensions='1' type-id='type-id-36' size-in-bits='128' id='type-id-37'>
      <subrange length='2' type-id='type-id-4' id='type-id-35'/>
    </array-type-def>
    <array-type-def dimensions='1' type-id='type-id-38' size-in-bits='128' id='type-id-39'>
      <subrange length='2' type-id='type-id-4' id='type-id-35'/>
    </array-type-def>
    <array-type-def dimensions='1' type-id='type-id-40' size-in-bits='128' id='type-id-41'>
      <subrange length='2' type-id='type-id-4' id='type-id-35'/>
    </array-type-def>
    <type-decl name='unnamed-enum-underlying-type-32' is-anonymous='yes' size-in-bits='32' alignment-in-bits='32' id='type-id-42'/>
    <type-decl name='unnamed-enum-underlying-type-8' is-anonymous='yes' size-in-bits='8' alignment-in-bits='8' id='type-id-43'/>
    <type-decl name='unsigned char' size-in-bits='8' id='type-id-44'/>
    <array-type-def dimensions='1' type-id='type-id-44' size-in-bits='256' id='type-id-45'>
      <subrange length='32' type-id='type-id-4' id='type-id-13'/>
    </array-type-def>
    <type-decl name='unsigned int' size-in-bits='32' id='type-id-17'/>
    <type-decl name='unsigned long int' size-in-bits='64' id='type-id-4'/>
    <type-decl name='unsigned short int' size-in-bits='16' id='type-id-46'/>
    <type-decl name='variadic parameter type' id='type-id-47'/>
    <type-decl name='void' id='type-id-48'/>
    <type-decl name='wchar_t' size-in-bits='32' id='type-id-49'/>
    <enum-decl name='PJ_data_source_state_t' naming-typedef-id='type-id-50' linkage-name='22PJ_data_source_state_t' id='type-id-51'>
      <underlying-type type-id='type-id-42'/>
      <enumerator name='PJ_DATA_SOURCE_STATE_IDLE' value='0'/>
      <enumerator name='PJ_DATA_SOURCE_STATE_CONFIGURING' value='1'/>
      <enumerator name='PJ_DATA_SOURCE_STATE_STARTING' value='2'/>
      <enumerator name='PJ_DATA_SOURCE_STATE_RUNNING' value='3'/>
      <enumerator name='PJ_DATA_SOURCE_STATE_PAUSED' value='4'/>
      <enumerator name='PJ_DATA_SOURCE_STATE_STOPPING' value='5'/>
      <enumerator name='PJ_DATA_SOURCE_STATE_STOPPED' value='6'/>
      <enumerator name='PJ_DATA_SOURCE_STATE_FAILED' value='7'/>
    </enum-decl>
    <typedef-decl name='PJ_data_source_state_t' type-id='type-id-51' id='type-id-50'/>
    <enum-decl name='PJ_data_source_message_level_t' naming-typedef-id='type-id-52' linkage-name='30PJ_data_source_message_level_t' id='type-id-53'>
      <underlying-type type-id='type-id-42'/>
      <enumerator name='PJ_DATA_SOURCE_MESSAGE_INFO' value='0'/>
      <enumerator name='PJ_DATA_SOURCE_MESSAGE_WARNING' value='1'/>
      <enumerator name='PJ_DATA_SOURCE_MESSAGE_ERROR' value='2'/>
    </enum-decl>
    <typedef-decl name='PJ_data_source_message_level_t' type-id='type-id-53' id='type-id-52'/>
    <enum-decl name='PJ_message_box_type_t' naming-typedef-id='type-id-54' linkage-name='21PJ_message_box_type_t' id='type-id-55'>
      <underlying-type type-id='type-id-42'/>
      <enumerator name='PJ_MESSAGE_BOX_INFO' value='0'/>
      <enumerator name='PJ_MESSAGE_BOX_WARNING' value='1'/>
      <enumerator name='PJ_MESSAGE_BOX_ERROR' value='2'/>
      <enumerator name='PJ_MESSAGE_BOX_QUESTION' value='3'/>
    </enum-decl>
    <typedef-decl name='PJ_message_box_type_t' type-id='type-id-55' id='type-id-54'/>
    <class-decl name='PJ_parser_binding_handle_t' size-in-bits='32' is-struct='yes' naming-typedef-id='type-id-56' visibility='default' id='type-id-57'>
      <data-member access='public' layout-offset-in-bits='0'>
        <var-decl name='id' type-id='type-id-58' visibility='default'/>
      </data-member>
    </class-decl>
    <typedef-decl name='PJ_parser_binding_handle_t' type-id='type-id-57' id='type-id-56'/>
    <class-decl name='PJ_parser_binding_request_t' size-in-bits='640' is-struct='yes' naming-typedef-id='type-id-59' visibility='default' id='type-id-60'>
      <data-member access='public' layout-offset-in-bits='0'>
        <var-decl name='topic_name' type-id='type-id-61' visibility='default'/>
      </data-member>
      <data-member access='public' layout-offset-in-bits='128'>
        <var-decl name='parser_encoding' type-id='type-id-61' visibility='default'/>
      </data-member>
      <data-member access='public' layout-offset-in-bits='256'>
        <var-decl name='type_name' type-id='type-id-61' visibility='default'/>
      </data-member>
      <data-member access='public' layout-offset-in-bits='384'>
        <var-decl name='schema' type-id='type-id-62' visibility='default'/>
      </data-member>
      <data-member access='public' layout-offset-in-bits='512'>
        <var-decl name='parser_config_json' type-id='type-id-61' visibility='default'/>
      </data-member>
    </class-decl>
    <typedef-decl name='PJ_parser_binding_request_t' type-id='type-id-60' id='type-id-59'/>
    <class-decl name='PJ_data_source_runtime_host_vtable_t' size-in-bits='768' is-struct='yes' visibility='default' id='type-id-63'>
      <data-member access='public' layout-offset-in-bits='0'>
        <var-decl name='protocol_version' type-id='type-id-58' visibility='default'/>
      </data-member>
      <data-member access='public' layout-offset-in-bits='32'>
        <var-decl name='struct_size' type-id='type-id-58' visibility='default'/>
      </data-member>
      <data-member access='public' layout-offset-in-bits='64'>
        <var-decl name='report_message' type-id='type-id-64' visibility='default'/>
      </data-member>
      <data-member access='public' layout-offset-in-bits='128'>
        <var-decl name='progress_start' type-id='type-id-65' visibility='default'/>
      </data-member>
      <data-member access='public' layout-offset-in-bits='192'>
        <var-decl name='progress_update' type-id='type-id-66' visibility='default'/>
      </data-member>
      <data-member access='public' layout-offset-in-bits='256'>
        <var-decl name='progress_finish' type-id='type-id-67' visibility='default'/>
      </data-member>
      <data-member access='public' layout-offset-in-bits='320'>
        <var-decl name='is_stop_requested' type-id='type-id-68' visibility='default'/>
      </data-member>
      <data-member access='public' layout-offset-in-bits='384'>
        <var-decl name='notify_state' type-id='type-id-69' visibility='default'/>
      </data-member>
      <data-member access='public' layout-offset-in-bits='448'>
        <var-decl name='request_stop' type-id='type-id-70' visibility='default'/>
      </data-member>
      <data-member access='public' layout-offset-in-bits='512'>
        <var-decl name='ensure_parser_binding' type-id='type-id-71' visibility='default'/>
      </data-member>
      <data-member access='public' layout-offset-in-bits='576'>
        <var-decl name='push_raw_message' type-id='type-id-72' visibility='default'/>
      </data-member>
      <data-member access='public' layout-offset-in-bits='640'>
        <var-decl name='show_message_box' type-id='type-id-73' visibility='default'/>
      </data-member>
      <data-member access='public' layout-offset-in-bits='704'>
        <var-decl name='list_available_encodings' type-id='type-id-74' visibility='default'/>
      </data-member>
    </class-decl>
    <typedef-decl name='PJ_data_source_runtime_host_vtable_t' type-id='type-id-63' id='type-id-75'/>
    <class-decl name='PJ_data_source_runtime_host_t' size-in-bits='128' is-struct='yes' naming-typedef-id='type-id-76' visibility='default' id='type-id-77'>
      <data-member access='public' layout-offset-in-bits='0'>
        <var-decl name='ctx' type-id='type-id-18' visibility='default'/>
      </data-member>
      <data-member access='public' layout-offset-in-bits='64'>
        <var-decl name='vtable' type-id='type-id-78' visibility='default'/>
      </data-member>
    </class-decl>
    <typedef-decl name='PJ_data_source_runtime_host_t' type-id='type-id-77' id='type-id-76'/>
    <class-decl name='PJ_data_source_vtable_t' size-in-bits='1024' is-struct='yes' visibility='default' id='type-id-79'>
      <data-member access='public' layout-offset-in-bits='0'>
        <var-decl name='protocol_version' type-id='type-id-58' visibility='default'/>
      </data-member>
      <data-member access='public' layout-offset-in-bits='32'>
        <var-decl name='struct_size' type-id='type-id-58' visibility='default'/>
      </data-member>
      <data-member access='public' layout-offset-in-bits='64'>
        <var-decl name='create' type-id='type-id-80' visibility='default'/>
      </data-member>
      <data-member access='public' layout-offset-in-bits='128'>
        <var-decl name='destroy' type-id='type-id-67' visibility='default'/>
      </data-member>
      <data-member access='public' layout-offset-in-bits='192'>
        <var-decl name='manifest_json' type-id='type-id-81' visibility='default'/>
      </data-member>
      <data-member access='public' layout-offset-in-bits='256'>
        <var-decl name='capabilities' type-id='type-id-82' visibility='default'/>
      </data-member>
      <data-member access='public' layout-offset-in-bits='320'>
        <var-decl name='bind' type-id='type-id-83' visibility='default'/>
      </data-member>
      <data-member access='public' layout-offset-in-bits='384'>
        <var-decl name='save_config' type-id='type-id-84' visibility='default'/>
      </data-member>
      <data-member access='public' layout-offset-in-bits='448'>
        <var-decl name='load_config' type-id='type-id-85' visibility='default'/>
      </data-member>
      <data-member access='public' layout-offset-in-bits='512'>
        <var-decl name='start' type-id='type-id-86' visibility='default'/>
      </data-member>
      <data-member access='public' layout-offset-in-bits='576'>
        <var-decl name='stop' type-id='type-id-67' visibility='default'/>
      </data-member>
      <data-member access='public' layout-offset-in-bits='640'>
        <var-decl name='pause' type-id='type-id-86' visibility='default'/>
      </data-member>
      <data-member access='public' layout-offset-in-bits='704'>
        <var-decl name='resume' type-id='type-id-86' visibility='default'/>
      </data-member>
      <data-member access='public' layout-offset-in-bits='768'>
        <var-decl name='poll' type-id='type-id-86' visibility='default'/>
      </data-member>
      <data-member access='public' layout-offset-in-bits='832'>
        <var-decl name='current_state' type-id='type-id-87' visibility='default'/>
      </data-member>
      <data-member access='public' layout-offset-in-bits='896'>
        <var-decl name='get_dialog' type-id='type-id-88' visibility='default'/>
      </data-member>
      <data-member access='public' layout-offset-in-bits='960'>
        <var-decl name='get_plugin_extension' type-id='type-id-89' visibility='default'/>
      </data-member>
    </class-decl>
    <typedef-decl name='PJ_data_source_vtable_t' type-id='type-id-79' id='type-id-90'/>
    <enum-decl name='PJ_primitive_type_t' naming-typedef-id='type-id-91' linkage-name='19PJ_primitive_type_t' id='type-id-92'>
      <underlying-type type-id='type-id-42'/>
      <enumerator name='PJ_PRIMITIVE_TYPE_FLOAT32' value='0'/>
      <enumerator name='PJ_PRIMITIVE_TYPE_FLOAT64' value='1'/>
      <enumerator name='PJ_PRIMITIVE_TYPE_INT8' value='2'/>
      <enumerator name='PJ_PRIMITIVE_TYPE_INT16' value='3'/>
      <enumerator name='PJ_PRIMITIVE_TYPE_INT32' value='4'/>
      <enumerator name='PJ_PRIMITIVE_TYPE_INT64' value='5'/>
      <enumerator name='PJ_PRIMITIVE_TYPE_UINT8' value='6'/>
      <enumerator name='PJ_PRIMITIVE_TYPE_UINT16' value='7'/>
      <enumerator name='PJ_PRIMITIVE_TYPE_UINT32' value='8'/>
      <enumerator name='PJ_PRIMITIVE_TYPE_UINT64' value='9'/>
      <enumerator name='PJ_PRIMITIVE_TYPE_BOOL' value='10'/>
      <enumerator name='PJ_PRIMITIVE_TYPE_STRING' value='11'/>
      <enumerator name='PJ_PRIMITIVE_TYPE_UNSPECIFIED' value='255'/>
    </enum-decl>
    <typedef-decl name='PJ_primitive_type_t' type-id='type-id-92' id='type-id-91'/>
    <class-decl name='PJ_string_view_t' size-in-bits='128' is-struct='yes' naming-typedef-id='type-id-61' visibility='default' id='type-id-93'>
      <data-member access='public' layout-offset-in-bits='0'>
        <var-decl name='data' type-id='type-id-81' visibility='default'/>
      </data-member>
      <data-member access='public' layout-offset-in-bits='64'>
        <var-decl name='size' type-id='type-id-94' visibility='default'/>
      </data-member>
    </class-decl>
    <typedef-decl name='PJ_string_view_t' type-id='type-id-93' id='type-id-61'/>
    <class-decl name='PJ_bytes_view_t' size-in-bits='128' is-struct='yes' naming-typedef-id='type-id-62' visibility='default' id='type-id-95'>
      <data-member access='public' layout-offset-in-bits='0'>
        <var-decl name='data' type-id='type-id-96' visibility='default'/>
      </data-member>
      <data-member access='public' layout-offset-in-bits='64'>
        <var-decl name='size' type-id='type-id-94' visibility='default'/>
      </data-member>
    </class-decl>
    <typedef-decl name='PJ_bytes_view_t' type-id='type-id-95' id='type-id-62'/>
    <class-decl name='ArrowSchema' size-in-bits='576' is-struct='yes' visibility='default' id='type-id-97'>
      <data-member access='public' layout-offset-in-bits='0'>
        <var-decl name='format' type-id='type-id-81' visibility='default'/>
      </data-member>
      <data-member access='public' layout-offset-in-bits='64'>
        <var-decl name='name' type-id='type-id-81' visibility='default'/>
      </data-member>
      <data-member access='public' layout-offset-in-bits='128'>
        <var-decl name='metadata' type-id='type-id-81' visibility='default'/>
      </data-member>
      <data-member access='public' layout-offset-in-bits='192'>
        <var-decl name='flags' type-id='type-id-98' visibility='default'/>
      </data-member>
      <data-member access='public' layout-offset-in-bits='256'>
        <var-decl name='n_children' type-id='type-id-98' visibility='default'/>
      </data-member>
      <data-member access='public' layout-offset-in-bits='320'>
        <var-decl name='children' type-id='type-id-99' visibility='default'/>
      </data-member>
      <data-member access='public' layout-offset-in-bits='384'>
        <var-decl name='dictionary' type-id='type-id-100' visibility='default'/>
      </data-member>
      <data-member access='public' layout-offset-in-bits='448'>
        <var-decl name='release' type-id='type-id-101' visibility='default'/>
      </data-member>
      <data-member access='public' layout-offset-in-bits='512'>
        <var-decl name='private_data' type-id='type-id-18' visibility='default'/>
      </data-member>
    </class-decl>
    <class-decl name='ArrowArray' size-in-bits='640' is-struct='yes' visibility='default' id='type-id-102'>
      <data-member access='public' layout-offset-in-bits='0'>
        <var-decl name='length' type-id='type-id-98' visibility='default'/>
      </data-member>
      <data-member access='public' layout-offset-in-bits='64'>
        <var-decl name='null_count' type-id='type-id-98' visibility='default'/>
      </data-member>
      <data-member access='public' layout-offset-in-bits='128'>
        <var-decl name='offset' type-id='type-id-98' visibility='default'/>
      </data-member>
      <data-member access='public' layout-offset-in-bits='192'>
        <var-decl name='n_buffers' type-id='type-id-98' visibility='default'/>
      </data-member>
      <data-member access='public' layout-offset-in-bits='256'>
        <var-decl name='n_children' type-id='type-id-98' visibility='default'/>
      </data-member>
      <data-member access='public' layout-offset-in-bits='320'>
        <var-decl name='buffers' type-id='type-id-103' visibility='default'/>
      </data-member>
      <data-member access='public' layout-offset-in-bits='384'>
        <var-decl name='children' type-id='type-id-104' visibility='default'/>
      </data-member>
      <data-member access='public' layout-offset-in-bits='448'>
        <var-decl name='dictionary' type-id='type-id-105' visibility='default'/>
      </data-member>
      <data-member access='public' layout-offset-in-bits='512'>
        <var-decl name='release' type-id='type-id-106' visibility='default'/>
      </data-member>
      <data-member access='public' layout-offset-in-bits='576'>
        <var-decl name='private_data' type-id='type-id-18' visibility='default'/>
      </data-member>
    </class-decl>
    <class-decl name='ArrowArrayStream' size-in-bits='320' is-struct='yes' visibility='default' id='type-id-107'>
      <data-member access='public' layout-offset-in-bits='0'>
        <var-decl name='get_schema' type-id='type-id-108' visibility='default'/>
      </data-member>
      <data-member access='public' layout-offset-in-bits='64'>
        <var-decl name='get_next' type-id='type-id-109' visibility='default'/>
      </data-member>
      <data-member access='public' layout-offset-in-bits='128'>
        <var-decl name='get_last_error' type-id='type-id-110' visibility='default'/>
      </data-member>
      <data-member access='public' layout-offset-in-bits='192'>
        <var-decl name='release' type-id='type-id-111' visibility='default'/>
      </data-member>
      <data-member access='public' layout-offset-in-bits='256'>
        <var-decl name='private_data' type-id='type-id-18' visibility='default'/>
      </data-member>
    </class-decl>
    <class-decl name='PJ_topic_handle_t' size-in-bits='32' is-struct='yes' naming-typedef-id='type-id-112' visibility='default' id='type-id-113'>
      <data-member access='public' layout-offset-in-bits='0'>
        <var-decl name='id' type-id='type-id-58' visibility='default'/>
      </data-member>
    </class-decl>
    <typedef-decl name='PJ_topic_handle_t' type-id='type-id-113' id='type-id-112'/>
    <class-decl name='PJ_field_handle_t' size-in-bits='64' is-struct='yes' naming-typedef-id='type-id-114' visibility='default' id='type-id-115'>
      <data-member access='public' layout-offset-in-bits='0'>
        <var-decl name='topic' type-id='type-id-112' visibility='default'/>
      </data-member>
      <data-member access='public' layout-offset-in-bits='32'>
        <var-decl name='id' type-id='type-id-58' visibility='default'/>
      </data-member>
    </class-decl>
    <typedef-decl name='PJ_field_handle_t' type-id='type-id-115' id='type-id-114'/>
    <class-decl name='PJ_error_t' size-in-bits='2432' is-struct='yes' naming-typedef-id='type-id-116' visibility='default' id='type-id-117'>
      <data-member access='public' layout-offset-in-bits='0'>
        <var-decl name='code' type-id='type-id-118' visibility='default'/>
      </data-member>
      <data-member access='public' layout-offset-in-bits='32'>
        <var-decl name='domain' type-id='type-id-12' visibility='default'/>
      </data-member>
      <data-member access='public' layout-offset-in-bits='288'>
        <var-decl name='message' type-id='type-id-10' visibility='default'/>
      </data-member>
      <data-member access='public' layout-offset-in-bits='2112'>
        <var-decl name='extended' type-id='type-id-18' visibility='default'/>
      </data-member>
      <data-member access='public' layout-offset-in-bits='2176'>
        <var-decl name='extended_kind' type-id='type-id-12' visibility='default'/>
      </data-member>
    </class-decl>
    <typedef-decl name='PJ_error_t' type-id='type-id-117' id='type-id-116'/>
    <class-decl name='PJ_service_t' size-in-bits='128' is-struct='yes' naming-typedef-id='type-id-119' visibility='default' id='type-id-120'>
      <data-member access='public' layout-offset-in-bits='0'>
        <var-decl name='ctx' type-id='type-id-18' visibility='default'/>
      </data-member>
      <data-member access='public' layout-offset-in-bits='64'>
        <var-decl name='vtable' type-id='type-id-18' visibility='default'/>
      </data-member>
    </class-decl>
    <typedef-decl name='PJ_service_t' type-id='type-id-120' id='type-id-119'/>
    <class-decl name='PJ_service_registry_vtable_t' size-in-bits='128' is-struct='yes' visibility='default' id='type-id-121'>
      <data-member access='public' layout-offset-in-bits='0'>
        <var-decl name='protocol_version' type-id='type-id-58' visibility='default'/>
      </data-member>
      <data-member access='public' layout-offset-in-bits='32'>
        <var-decl name='struct_size' type-id='type-id-58' visibility='default'/>
      </data-member>
      <data-member access='public' layout-offset-in-bits='64'>
        <var-decl name='get_service' type-id='type-id-122' visibility='default'/>
      </data-member>
    </class-decl>
    <typedef-decl name='PJ_service_registry_vtable_t' type-id='type-id-121' id='type-id-123'/>
    <class-decl name='PJ_service_registry_t' size-in-bits='128' is-struct='yes' naming-typedef-id='type-id-124' visibility='default' id='type-id-125'>
      <data-member access='public' layout-offset-in-bits='0'>
        <var-decl name='ctx' type-id='type-id-18' visibility='default'/>
      </data-member>
      <data-member access='public' layout-offset-in-bits='64'>
        <var-decl name='vtable' type-id='type-id-126' visibility='default'/>
      </data-member>
    </class-decl>
    <typedef-decl name='PJ_service_registry_t' type-id='type-id-125' id='type-id-124'/>
    <class-decl name='PJ_borrowed_dialog_t' size-in-bits='128' is-struct='yes' naming-typedef-id='type-id-127' visibility='default' id='type-id-128'>
      <data-member access='public' layout-offset-in-bits='0'>
        <var-decl name='ctx' type-id='type-id-18' visibility='default'/>
      </data-member>
      <data-member access='public' layout-offset-in-bits='64'>
        <var-decl name='vtable' type-id='type-id-129' visibility='default'/>
      </data-member>
    </class-decl>
    <typedef-decl name='PJ_borrowed_dialog_t' type-id='type-id-128' id='type-id-127'/>
    <union-decl name='PJ_scalar_value_data_t' size-in-bits='128' naming-typedef-id='type-id-130' visibility='default' id='type-id-131'>
      <data-member access='public'>
        <var-decl name='as_float32' type-id='type-id-20' visibility='default'/>
      </data-member>
      <data-member access='public'>
        <var-decl name='as_float64' type-id='type-id-19' visibility='default'/>
      </data-member>
      <data-member access='public'>
        <var-decl name='as_int8' type-id='type-id-132' visibility='default'/>
      </data-member>
      <data-member access='public'>
        <var-decl name='as_int16' type-id='type-id-133' visibility='default'/>
      </data-member>
      <data-member access='public'>
        <var-decl name='as_int32' type-id='type-id-118' visibility='default'/>
      </data-member>
      <data-member access='public'>
        <var-decl name='as_int64' type-id='type-id-98' visibility='default'/>
      </data-member>
      <data-member access='public'>
        <var-decl name='as_uint8' type-id='type-id-134' visibility='default'/>
      </data-member>
      <data-member access='public'>
        <var-decl name='as_uint16' type-id='type-id-135' visibility='default'/>
      </data-member>
      <data-member access='public'>
        <var-decl name='as_uint32' type-id='type-id-58' visibility='default'/>
      </data-member>
      <data-member access='public'>
        <var-decl name='as_uint64' type-id='type-id-136' visibility='default'/>
      </data-member>
      <data-member access='public'>
        <var-decl name='as_bool' type-id='type-id-134' visibility='default'/>
      </data-member>
      <data-member access='public'>
        <var-decl name='as_string' type-id='type-id-61' visibility='default'/>
      </data-member>
    </union-decl>
    <typedef-decl name='PJ_scalar_value_data_t' type-id='type-id-131' id='type-id-130'/>
    <class-decl name='PJ_scalar_value_t' size-in-bits='192' is-struct='yes' naming-typedef-id='type-id-137' visibility='default' id='type-id-138'>
      <data-member access='public' layout-offset-in-bits='0'>
        <var-decl name='type' type-id='type-id-91' visibility='default'/>
      </data-member>
      <data-member access='public' layout-offset-in-bits='64'>
        <var-decl name='data' type-id='type-id-130' visibility='default'/>
      </data-member>
    </class-decl>
    <typedef-decl name='PJ_scalar_value_t' type-id='type-id-138' id='type-id-137'/>
    <class-decl name='PJ_named_field_value_t' size-in-bits='384' is-struct='yes' naming-typedef-id='type-id-139' visibility='default' id='type-id-140'>
      <data-member access='public' layout-offset-in-bits='0'>
        <var-decl name='name' type-id='type-id-61' visibility='default'/>
      </data-member>
      <data-member access='public' layout-offset-in-bits='128'>
        <var-decl name='is_null' type-id='type-id-1' visibility='default'/>
      </data-member>
      <data-member access='public' layout-offset-in-bits='192'>
        <var-decl name='value' type-id='type-id-137' visibility='default'/>
      </data-member>
    </class-decl>
    <typedef-decl name='PJ_named_field_value_t' type-id='type-id-140' id='type-id-139'/>
    <class-decl name='PJ_bound_field_value_t' size-in-bits='320' is-struct='yes' naming-typedef-id='type-id-141' visibility='default' id='type-id-142'>
      <data-member access='public' layout-offset-in-bits='0'>
        <var-decl name='field' type-id='type-id-114' visibility='default'/>
      </data-member>
      <data-member access='public' layout-offset-in-bits='64'>
        <var-decl name='is_null' type-id='type-id-1' visibility='default'/>
      </data-member>
      <data-member access='public' layout-offset-in-bits='128'>
        <var-decl name='value' type-id='type-id-137' visibility='default'/>
      </data-member>
    </class-decl>
    <typedef-decl name='PJ_bound_field_value_t' type-id='type-id-142' id='type-id-141'/>
    <class-decl name='PJ_source_write_host_vtable_t' size-in-bits='384' is-struct='yes' visibility='default' id='type-id-143'>
      <data-member access='public' layout-offset-in-bits='0'>
        <var-decl name='abi_version' type-id='type-id-58' visibility='default'/>
      </data-member>
      <data-member access='public' layout-offset-in-bits='32'>
        <var-decl name='struct_size' type-id='type-id-58' visibility='default'/>
      </data-member>
      <data-member access='public' layout-offset-in-bits='64'>
        <var-decl name='ensure_topic' type-id='type-id-144' visibility='default'/>
      </data-member>
      <data-member access='public' layout-offset-in-bits='128'>
        <var-decl name='ensure_field' type-id='type-id-145' visibility='default'/>
      </data-member>
      <data-member access='public' layout-offset-in-bits='192'>
        <var-decl name='append_record' type-id='type-id-146' visibility='default'/>
      </data-member>
      <data-member access='public' layout-offset-in-bits='256'>
        <var-decl name='append_bound_record' type-id='type-id-147' visibility='default'/>
      </data-member>
      <data-member access='public' layout-offset-in-bits='320'>
        <var-decl name='append_arrow_stream' type-id='type-id-148' visibility='default'/>
      </data-member>
    </class-decl>
    <typedef-decl name='PJ_source_write_host_vtable_t' type-id='type-id-143' id='type-id-149'/>
    <class-decl name='PJ_source_write_host_t' size-in-bits='128' is-struct='yes' naming-typedef-id='type-id-150' visibility='default' id='type-id-151'>
      <data-member access='public' layout-offset-in-bits='0'>
        <var-decl name='ctx' type-id='type-id-18' visibility='default'/>
      </data-member>
      <data-member access='public' layout-offset-in-bits='64'>
        <var-decl name='vtable' type-id='type-id-152' visibility='default'/>
      </data-member>
    </class-decl>
    <typedef-decl name='PJ_source_write_host_t' type-id='type-id-151' id='type-id-150'/>
    <class-decl name='lconv' size-in-bits='768' is-struct='yes' visibility='default' id='type-id-153'>
      <data-member access='public' layout-offset-in-bits='0'>
        <var-decl name='decimal_point' type-id='type-id-154' visibility='default'/>
      </data-member>
      <data-member access='public' layout-offset-in-bits='64'>
        <var-decl name='thousands_sep' type-id='type-id-154' visibility='default'/>
      </data-member>
      <data-member access='public' layout-offset-in-bits='128'>
        <var-decl name='grouping' type-id='type-id-154' visibility='default'/>
      </data-member>
      <data-member access='public' layout-offset-in-bits='192'>
        <var-decl name='int_curr_symbol' type-id='type-id-154' visibility='default'/>
      </data-member>
      <data-member access='public' layout-offset-in-bits='256'>
        <var-decl name='currency_symbol' type-id='type-id-154' visibility='default'/>
      </data-member>
      <data-member access='public' layout-offset-in-bits='320'>
        <var-decl name='mon_decimal_point' type-id='type-id-154' visibility='default'/>
      </data-member>
      <data-member access='public' layout-offset-in-bits='384'>
        <var-decl name='mon_thousands_sep' type-id='type-id-154' visibility='default'/>
      </data-member>
      <data-member access='public' layout-offset-in-bits='448'>
        <var-decl name='mon_grouping' type-id='type-id-154' visibility='default'/>
      </data-member>
      <data-member access='public' layout-offset-in-bits='512'>
        <var-decl name='positive_sign' type-id='type-id-154' visibility='default'/>
      </data-member>
      <data-member access='public' layout-offset-in-bits='576'>
        <var-decl name='negative_sign' type-id='type-id-154' visibility='default'/>
      </data-member>
      <data-member access='public' layout-offset-in-bits='640'>
        <var-decl name='int_frac_digits' type-id='type-id-2' visibility='default'/>
      </data-member>
      <data-member access='public' layout-offset-in-bits='648'>
        <var-decl name='frac_digits' type-id='type-id-2' visibility='default'/>
      </data-member>
      <data-member access='public' layout-offset-in-bits='656'>
        <var-decl name='p_cs_precedes' type-id='type-id-2' visibility='default'/>
      </data-member>
      <data-member access='public' layout-offset-in-bits='664'>
        <var-decl name='p_sep_by_space' type-id='type-id-2' visibility='default'/>
      </data-member>
      <data-member access='public' layout-offset-in-bits='672'>
        <var-decl name='n_cs_precedes' type-id='type-id-2' visibility='default'/>
      </data-member>
      <data-member access='public' layout-offset-in-bits='680'>
        <var-decl name='n_sep_by_space' type-id='type-id-2' visibility='default'/>
      </data-member>
      <data-member access='public' layout-offset-in-bits='688'>
        <var-decl name='p_sign_posn' type-id='type-id-2' visibility='default'/>
      </data-member>
      <data-member access='public' layout-offset-in-bits='696'>
        <var-decl name='n_sign_posn' type-id='type-id-2' visibility='default'/>
      </data-member>
      <data-member access='public' layout-offset-in-bits='704'>
        <var-decl name='int_p_cs_precedes' type-id='type-id-2' visibility='default'/>
      </data-member>
      <data-member access='public' layout-offset-in-bits='712'>
        <var-decl name='int_p_sep_by_space' type-id='type-id-2' visibility='default'/>
      </data-member>
      <data-member access='public' layout-offset-in-bits='720'>
        <var-decl name='int_n_cs_precedes' type-id='type-id-2' visibility='default'/>
      </data-member>
      <data-member access='public' layout-offset-in-bits='728'>
        <var-decl name='int_n_sep_by_space' type-id='type-id-2' visibility='default'/>
      </data-member>
      <data-member access='public' layout-offset-in-bits='736'>
        <var-decl name='int_p_sign_posn' type-id='type-id-2' visibility='default'/>
      </data-member>
      <data-member access='public' layout-offset-in-bits='744'>
        <var-decl name='int_n_sign_posn' type-id='type-id-2' visibility='default'/>
      </data-member>
    </class-decl>
    <typedef-decl name='fpos_t' type-id='type-id-155' id='type-id-156'/>
    <class-decl name='div_t' size-in-bits='64' is-struct='yes' naming-typedef-id='type-id-157' visibility='default' id='type-id-158'>
      <data-member access='public' layout-offset-in-bits='0'>
        <var-decl name='quot' type-id='type-id-21' visibility='default'/>
      </data-member>
      <data-member access='public' layout-offset-in-bits='32'>
        <var-decl name='rem' type-id='type-id-21' visibility='default'/>
      </data-member>
    </class-decl>
    <typedef-decl name='div_t' type-id='type-id-158' id='type-id-157'/>
    <class-decl name='ldiv_t' size-in-bits='128' is-struct='yes' naming-typedef-id='type-id-159' visibility='default' id='type-id-160'>
      <data-member access='public' layout-offset-in-bits='0'>
        <var-decl name='quot' type-id='type-id-23' visibility='default'/>
      </data-member>
      <data-member access='public' layout-offset-in-bits='64'>
        <var-decl name='rem' type-id='type-id-23' visibility='default'/>
      </data-member>
    </class-decl>
    <typedef-decl name='ldiv_t' type-id='type-id-160' id='type-id-159'/>
    <class-decl name='lldiv_t' size-in-bits='128' is-struct='yes' naming-typedef-id='type-id-161' visibility='default' id='type-id-162'>
      <data-member access='public' layout-offset-in-bits='0'>
        <var-decl name='quot' type-id='type-id-24' visibility='default'/>
      </data-member>
      <data-member access='public' layout-offset-in-bits='64'>
        <var-decl name='rem' type-id='type-id-24' visibility='default'/>
      </data-member>
    </class-decl>
    <typedef-decl name='lldiv_t' type-id='type-id-162' id='type-id-161'/>
    <typedef-decl name='__compar_fn_t' type-id='type-id-163' id='type-id-164'/>
    <typedef-decl name='wctrans_t' type-id='type-id-165' id='type-id-166'/>
    <typedef-decl name='int8_t' type-id='type-id-167' id='type-id-132'/>
    <typedef-decl name='int16_t' type-id='type-id-168' id='type-id-133'/>
    <typedef-decl name='int32_t' type-id='type-id-169' id='type-id-118'/>
    <typedef-decl name='int64_t' type-id='type-id-170' id='type-id-98'/>
    <typedef-decl name='uint8_t' type-id='type-id-171' id='type-id-134'/>
    <typedef-decl name='uint16_t' type-id='type-id-172' id='type-id-135'/>
    <typedef-decl name='uint32_t' type-id='type-id-173' id='type-id-58'/>
    <typedef-decl name='uint64_t' type-id='type-id-174' id='type-id-136'/>
    <typedef-decl name='__int8_t' type-id='type-id-27' id='type-id-167'/>
    <typedef-decl name='__uint8_t' type-id='type-id-44' id='type-id-171'/>
    <typedef-decl name='__int16_t' type-id='type-id-26' id='type-id-168'/>
    <typedef-decl name='__uint16_t' type-id='type-id-46' id='type-id-172'/>
    <typedef-decl name='__int32_t' type-id='type-id-21' id='type-id-169'/>
    <typedef-decl name='__uint32_t' type-id='type-id-17' id='type-id-173'/>
    <typedef-decl name='__int64_t' type-id='type-id-23' id='type-id-170'/>
    <typedef-decl name='__uint64_t' type-id='type-id-4' id='type-id-174'/>
    <typedef-decl name='__off_t' type-id='type-id-23' id='type-id-175'/>
    <typedef-decl name='__off64_t' type-id='type-id-23' id='type-id-176'/>
    <typedef-decl name='FILE' type-id='type-id-177' id='type-id-178'/>
    <typedef-decl name='__FILE' type-id='type-id-177' id='type-id-179'/>
    <class-decl name='_G_fpos_t' size-in-bits='128' is-struct='yes' visibility='default' id='type-id-180'>
      <data-member access='public' layout-offset-in-bits='0'>
        <var-decl name='__pos' type-id='type-id-175' visibility='default'/>
      </data-member>
      <data-member access='public' layout-offset-in-bits='64'>
        <var-decl name='__state' type-id='type-id-181' visibility='default'/>
      </data-member>
    </class-decl>
    <typedef-decl name='__fpos_t' type-id='type-id-180' id='type-id-155'/>
    <class-decl name='__mbstate_t' size-in-bits='64' is-struct='yes' naming-typedef-id='type-id-181' visibility='default' id='type-id-182'>
      <member-type access='public'>
        <union-decl name='__anonymous_union__' size-in-bits='32' is-anonymous='yes' visibility='default' id='type-id-183'>
          <data-member access='public'>
            <var-decl name='__wch' type-id='type-id-17' visibility='default'/>
          </data-member>
          <data-member access='public'>
            <var-decl name='__wchb' type-id='type-id-14' visibility='default'/>
          </data-member>
        </union-decl>
      </member-type>
      <data-member access='public' layout-offset-in-bits='0'>
        <var-decl name='__count' type-id='type-id-21' visibility='default'/>
      </data-member>
      <data-member access='public' layout-offset-in-bits='32'>
        <var-decl name='__value' type-id='type-id-183' visibility='default'/>
      </data-member>
    </class-decl>
    <typedef-decl name='__mbstate_t' type-id='type-id-182' id='type-id-181'/>
    <typedef-decl name='mbstate_t' type-id='type-id-181' id='type-id-184'/>
    <typedef-decl name='_IO_lock_t' type-id='type-id-48' id='type-id-185'/>
    <class-decl name='_IO_FILE' size-in-bits='1728' is-struct='yes' visibility='default' id='type-id-177'>
      <data-member access='public' layout-offset-in-bits='0'>
        <var-decl name='_flags' type-id='type-id-21' visibility='default'/>
      </data-member>
      <data-member access='public' layout-offset-in-bits='64'>
        <var-decl name='_IO_read_ptr' type-id='type-id-154' visibility='default'/>
      </data-member>
      <data-member access='public' layout-offset-in-bits='128'>
        <var-decl name='_IO_read_end' type-id='type-id-154' visibility='default'/>
      </data-member>
      <data-member access='public' layout-offset-in-bits='192'>
        <var-decl name='_IO_read_base' type-id='type-id-154' visibility='default'/>
      </data-member>
      <data-member access='public' layout-offset-in-bits='256'>
        <var-decl name='_IO_write_base' type-id='type-id-154' visibility='default'/>
      </data-member>
      <data-member access='public' layout-offset-in-bits='320'>
        <var-decl name='_IO_write_ptr' type-id='type-id-154' visibility='default'/>
      </data-member>
      <data-member access='public' layout-offset-in-bits='384'>
        <var-decl name='_IO_write_end' type-id='type-id-154' visibility='default'/>
      </data-member>
      <data-member access='public' layout-offset-in-bits='448'>
        <var-decl name='_IO_buf_base' type-id='type-id-154' visibility='default'/>
      </data-member>
      <data-member access='public' layout-offset-in-bits='512'>
        <var-decl name='_IO_buf_end' type-id='type-id-154' visibility='default'/>
      </data-member>
      <data-member access='public' layout-offset-in-bits='576'>
        <var-decl name='_IO_save_base' type-id='type-id-154' visibility='default'/>
      </data-member>
      <data-member access='public' layout-offset-in-bits='640'>
        <var-decl name='_IO_backup_base' type-id='type-id-154' visibility='default'/>
      </data-member>
      <data-member access='public' layout-offset-in-bits='704'>
        <var-decl name='_IO_save_end' type-id='type-id-154' visibility='default'/>
      </data-member>
      <data-member access='public' layout-offset-in-bits='768'>
        <var-decl name='_markers' type-id='type-id-186' visibility='default'/>
      </data-member>
      <data-member access='public' layout-offset-in-bits='832'>
        <var-decl name='_chain' type-id='type-id-187' visibility='default'/>
      </data-member>
      <data-member access='public' layout-offset-in-bits='896'>
        <var-decl name='_fileno' type-id='type-id-21' visibility='default'/>
      </data-member>
      <data-member access='public' layout-offset-in-bits='928'>
        <var-decl name='_flags2' type-id='type-id-21' visibility='default'/>
      </data-member>
      <data-member access='public' layout-offset-in-bits='960'>
        <var-decl name='_old_offset' type-id='type-id-175' visibility='default'/>
      </data-member>
      <data-member access='public' layout-offset-in-bits='1024'>
        <var-decl name='_cur_column' type-id='type-id-46' visibility='default'/>
      </data-member>
      <data-member access='public' layout-offset-in-bits='1040'>
        <var-decl name='_vtable_offset' type-id='type-id-27' visibility='default'/>
      </data-member>
      <data-member access='public' layout-offset-in-bits='1048'>
        <var-decl name='_shortbuf' type-id='type-id-6' visibility='default'/>
      </data-member>
      <data-member access='public' layout-offset-in-bits='1088'>
        <var-decl name='_lock' type-id='type-id-188' visibility='default'/>
      </data-member>
      <data-member access='public' layout-offset-in-bits='1152'>
        <var-decl name='_offset' type-id='type-id-176' visibility='default'/>
      </data-member>
      <data-member access='public' layout-offset-in-bits='1216'>
        <var-decl name='_codecvt' type-id='type-id-189' visibility='default'/>
      </data-member>
      <data-member access='public' layout-offset-in-bits='1280'>
        <var-decl name='_wide_data' type-id='type-id-190' visibility='default'/>
      </data-member>
      <data-member access='public' layout-offset-in-bits='1344'>
        <var-decl name='_freeres_list' type-id='type-id-187' visibility='default'/>
      </data-member>
      <data-member access='public' layout-offset-in-bits='1408'>
        <var-decl name='_freeres_buf' type-id='type-id-18' visibility='default'/>
      </data-member>
      <data-member access='public' layout-offset-in-bits='1472'>
        <var-decl name='__pad5' type-id='type-id-94' visibility='default'/>
      </data-member>
      <data-member access='public' layout-offset-in-bits='1536'>
        <var-decl name='_mode' type-id='type-id-21' visibility='default'/>
      </data-member>
      <data-member access='public' layout-offset-in-bits='1568'>
        <var-decl name='_unused2' type-id='type-id-8' visibility='default'/>
      </data-member>
    </class-decl>
    <class-decl name='tm' size-in-bits='448' is-struct='yes' visibility='default' id='type-id-191'>
      <data-member access='public' layout-offset-in-bits='0'>
        <var-decl name='tm_sec' type-id='type-id-21' visibility='default'/>
      </data-member>
      <data-member access='public' layout-offset-in-bits='32'>
        <var-decl name='tm_min' type-id='type-id-21' visibility='default'/>
      </data-member>
      <data-member access='public' layout-offset-in-bits='64'>
        <var-decl name='tm_hour' type-id='type-id-21' visibility='default'/>
      </data-member>
      <data-member access='public' layout-offset-in-bits='96'>
        <var-decl name='tm_mday' type-id='type-id-21' visibility='default'/>
      </data-member>
      <data-member access='public' layout-offset-in-bits='128'>
        <var-decl name='tm_mon' type-id='type-id-21' visibility='default'/>
      </data-member>
      <data-member access='public' layout-offset-in-bits='160'>
        <var-decl name='tm_year' type-id='type-id-21' visibility='default'/>
      </data-member>
      <data-member access='public' layout-offset-in-bits='192'>
        <var-decl name='tm_wday' type-id='type-id-21' visibility='default'/>
      </data-member>
      <data-member access='public' layout-offset-in-bits='224'>
        <var-decl name='tm_yday' type-id='type-id-21' visibility='default'/>
      </data-member>
      <data-member access='public' layout-offset-in-bits='256'>
        <var-decl name='tm_isdst' type-id='type-id-21' visibility='default'/>
      </data-member>
      <data-member access='public' layout-offset-in-bits='320'>
        <var-decl name='tm_gmtoff' type-id='type-id-23' visibility='default'/>
      </data-member>
      <data-member access='public' layout-offset-in-bits='384'>
        <var-decl name='tm_zone' type-id='type-id-81' visibility='default'/>
      </data-member>
    </class-decl>
    <typedef-decl name='wint_t' type-id='type-id-17' id='type-id-192'/>
    <typedef-decl name='wctype_t' type-id='type-id-4' id='type-id-193'/>
    <typedef-decl name='size_t' type-id='type-id-4' id='type-id-94'/>
    <pointer-type-def type-id='type-id-102' size-in-bits='64' id='type-id-105'/>
    <pointer-type-def type-id='type-id-105' size-in-bits='64' id='type-id-104'/>
    <pointer-type-def type-id='type-id-107' size-in-bits='64' id='type-id-194'/>
    <pointer-type-def type-id='type-id-97' size-in-bits='64' id='type-id-100'/>
    <pointer-type-def type-id='type-id-100' size-in-bits='64' id='type-id-99'/>
    <pointer-type-def type-id='type-id-178' size-in-bits='64' id='type-id-195'/>
    <pointer-type-def type-id='type-id-196' size-in-bits='64' id='type-id-197'/>
    <reference-type-def kind='lvalue' type-id='type-id-198' size-in-bits='64' id='type-id-199'/>
    <reference-type-def kind='rvalue' type-id='type-id-198' size-in-bits='64' id='type-id-200'/>
    <pointer-type-def type-id='type-id-198' size-in-bits='64' id='type-id-201'/>
    <qualified-type-def type-id='type-id-201' const='yes' id='type-id-202'/>
    <reference-type-def kind='lvalue' type-id='type-id-203' size-in-bits='64' id='type-id-204'/>
    <pointer-type-def type-id='type-id-203' size-in-bits='64' id='type-id-205'/>
    <qualified-type-def type-id='type-id-205' const='yes' id='type-id-206'/>
    <reference-type-def kind='lvalue' type-id='type-id-207' size-in-bits='64' id='type-id-208'/>
    <pointer-type-def type-id='type-id-207' size-in-bits='64' id='type-id-209'/>
    <qualified-type-def type-id='type-id-209' const='yes' id='type-id-210'/>
    <pointer-type-def type-id='type-id-211' size-in-bits='64' id='type-id-212'/>
    <pointer-type-def type-id='type-id-213' size-in-bits='64' id='type-id-214'/>
    <qualified-type-def type-id='type-id-214' const='yes' id='type-id-215'/>
    <pointer-type-def type-id='type-id-216' size-in-bits='64' id='type-id-217'/>
    <qualified-type-def type-id='type-id-217' const='yes' id='type-id-218'/>
    <reference-type-def kind='lvalue' type-id='type-id-219' size-in-bits='64' id='type-id-220'/>
    <pointer-type-def type-id='type-id-219' size-in-bits='64' id='type-id-221'/>
    <qualified-type-def type-id='type-id-221' const='yes' id='type-id-222'/>
    <reference-type-def kind='lvalue' type-id='type-id-223' size-in-bits='64' id='type-id-224'/>
    <reference-type-def kind='rvalue' type-id='type-id-223' size-in-bits='64' id='type-id-225'/>
    <reference-type-def kind='lvalue' type-id='type-id-226' size-in-bits='64' id='type-id-227'/>
    <reference-type-def kind='rvalue' type-id='type-id-226' size-in-bits='64' id='type-id-228'/>
    <pointer-type-def type-id='type-id-226' size-in-bits='64' id='type-id-229'/>
    <qualified-type-def type-id='type-id-229' const='yes' id='type-id-230'/>
    <pointer-type-def type-id='type-id-231' size-in-bits='64' id='type-id-232'/>
    <qualified-type-def type-id='type-id-232' const='yes' id='type-id-233'/>
    <reference-type-def kind='lvalue' type-id='type-id-234' size-in-bits='64' id='type-id-235'/>
    <reference-type-def kind='rvalue' type-id='type-id-234' size-in-bits='64' id='type-id-236'/>
    <pointer-type-def type-id='type-id-234' size-in-bits='64' id='type-id-237'/>
    <qualified-type-def type-id='type-id-237' const='yes' id='type-id-238'/>
    <reference-type-def kind='lvalue' type-id='type-id-239' size-in-bits='64' id='type-id-240'/>
    <reference-type-def kind='rvalue' type-id='type-id-239' size-in-bits='64' id='type-id-241'/>
    <reference-type-def kind='rvalue' type-id='type-id-242' size-in-bits='64' id='type-id-243'/>
    <pointer-type-def type-id='type-id-116' size-in-bits='64' id='type-id-244'/>
    <reference-type-def kind='lvalue' type-id='type-id-114' size-in-bits='64' id='type-id-245'/>
    <reference-type-def kind='rvalue' type-id='type-id-114' size-in-bits='64' id='type-id-246'/>
    <pointer-type-def type-id='type-id-114' size-in-bits='64' id='type-id-247'/>
    <reference-type-def kind='lvalue' type-id='type-id-139' size-in-bits='64' id='type-id-248'/>
    <reference-type-def kind='rvalue' type-id='type-id-139' size-in-bits='64' id='type-id-249'/>
    <pointer-type-def type-id='type-id-139' size-in-bits='64' id='type-id-250'/>
    <qualified-type-def type-id='type-id-250' const='yes' id='type-id-251'/>
    <reference-type-def kind='lvalue' type-id='type-id-251' size-in-bits='64' id='type-id-252'/>
    <reference-type-def kind='lvalue' type-id='type-id-56' size-in-bits='64' id='type-id-253'/>
    <reference-type-def kind='rvalue' type-id='type-id-56' size-in-bits='64' id='type-id-254'/>
    <pointer-type-def type-id='type-id-56' size-in-bits='64' id='type-id-255'/>
    <reference-type-def kind='lvalue' type-id='type-id-137' size-in-bits='64' id='type-id-256'/>
    <reference-type-def kind='lvalue' type-id='type-id-119' size-in-bits='64' id='type-id-257'/>
    <pointer-type-def type-id='type-id-119' size-in-bits='64' id='type-id-258'/>
    <pointer-type-def type-id='type-id-61' size-in-bits='64' id='type-id-259'/>
    <reference-type-def kind='lvalue' type-id='type-id-112' size-in-bits='64' id='type-id-260'/>
    <reference-type-def kind='rvalue' type-id='type-id-112' size-in-bits='64' id='type-id-261'/>
    <pointer-type-def type-id='type-id-112' size-in-bits='64' id='type-id-262'/>
    <pointer-type-def type-id='type-id-177' size-in-bits='64' id='type-id-187'/>
    <pointer-type-def type-id='type-id-263' size-in-bits='64' id='type-id-189'/>
    <pointer-type-def type-id='type-id-185' size-in-bits='64' id='type-id-188'/>
    <pointer-type-def type-id='type-id-264' size-in-bits='64' id='type-id-186'/>
    <pointer-type-def type-id='type-id-265' size-in-bits='64' id='type-id-190'/>
    <pointer-type-def type-id='type-id-179' size-in-bits='64' id='type-id-266'/>
    <reference-type-def kind='lvalue' type-id='type-id-267' size-in-bits='64' id='type-id-268'/>
    <pointer-type-def type-id='type-id-267' size-in-bits='64' id='type-id-269'/>
    <qualified-type-def type-id='type-id-269' const='yes' id='type-id-270'/>
    <reference-type-def kind='lvalue' type-id='type-id-271' size-in-bits='64' id='type-id-272'/>
    <reference-type-def kind='lvalue' type-id='type-id-273' size-in-bits='64' id='type-id-274'/>
    <reference-type-def kind='lvalue' type-id='type-id-275' size-in-bits='64' id='type-id-276'/>
    <pointer-type-def type-id='type-id-275' size-in-bits='64' id='type-id-277'/>
    <qualified-type-def type-id='type-id-277' const='yes' id='type-id-278'/>
    <reference-type-def kind='lvalue' type-id='type-id-279' size-in-bits='64' id='type-id-280'/>
    <pointer-type-def type-id='type-id-279' size-in-bits='64' id='type-id-281'/>
    <reference-type-def kind='lvalue' type-id='type-id-282' size-in-bits='64' id='type-id-283'/>
    <pointer-type-def type-id='type-id-282' size-in-bits='64' id='type-id-284'/>
    <reference-type-def kind='lvalue' type-id='type-id-285' size-in-bits='64' id='type-id-286'/>
    <pointer-type-def type-id='type-id-285' size-in-bits='64' id='type-id-287'/>
    <qualified-type-def type-id='type-id-287' const='yes' id='type-id-288'/>
    <reference-type-def kind='lvalue' type-id='type-id-289' size-in-bits='64' id='type-id-290'/>
    <pointer-type-def type-id='type-id-289' size-in-bits='64' id='type-id-291'/>
    <pointer-type-def type-id='type-id-292' size-in-bits='64' id='type-id-293'/>
    <qualified-type-def type-id='type-id-293' const='yes' id='type-id-294'/>
    <pointer-type-def type-id='type-id-295' size-in-bits='64' id='type-id-296'/>
    <qualified-type-def type-id='type-id-296' const='yes' id='type-id-297'/>
    <pointer-type-def type-id='type-id-298' size-in-bits='64' id='type-id-68'/>
    <pointer-type-def type-id='type-id-299' size-in-bits='64' id='type-id-86'/>
    <pointer-type-def type-id='type-id-300' size-in-bits='64' id='type-id-84'/>
    <pointer-type-def type-id='type-id-301' size-in-bits='64' id='type-id-71'/>
    <pointer-type-def type-id='type-id-302' size-in-bits='64' id='type-id-72'/>
    <pointer-type-def type-id='type-id-303' size-in-bits='64' id='type-id-83'/>
    <pointer-type-def type-id='type-id-304' size-in-bits='64' id='type-id-85'/>
    <pointer-type-def type-id='type-id-305' size-in-bits='64' id='type-id-144'/>
    <pointer-type-def type-id='type-id-306' size-in-bits='64' id='type-id-122'/>
    <pointer-type-def type-id='type-id-307' size-in-bits='64' id='type-id-65'/>
    <pointer-type-def type-id='type-id-308' size-in-bits='64' id='type-id-148'/>
    <pointer-type-def type-id='type-id-309' size-in-bits='64' id='type-id-145'/>
    <pointer-type-def type-id='type-id-310' size-in-bits='64' id='type-id-147'/>
    <pointer-type-def type-id='type-id-311' size-in-bits='64' id='type-id-146'/>
    <pointer-type-def type-id='type-id-312' size-in-bits='64' id='type-id-66'/>
    <reference-type-def kind='lvalue' type-id='type-id-1' size-in-bits='64' id='type-id-313'/>
    <reference-type-def kind='rvalue' type-id='type-id-1' size-in-bits='64' id='type-id-314'/>
    <reference-type-def kind='lvalue' type-id='type-id-2' size-in-bits='64' id='type-id-315'/>
    <pointer-type-def type-id='type-id-2' size-in-bits='64' id='type-id-154'/>
    <qualified-type-def type-id='type-id-154' const='yes' id='type-id-316'/>
    <reference-type-def kind='lvalue' type-id='type-id-316' size-in-bits='64' id='type-id-317'/>
    <pointer-type-def type-id='type-id-154' size-in-bits='64' id='type-id-318'/>
    <qualified-type-def type-id='type-id-196' const='yes' id='type-id-319'/>
    <pointer-type-def type-id='type-id-319' size-in-bits='64' id='type-id-320'/>
    <qualified-type-def type-id='type-id-320' const='yes' id='type-id-321'/>
    <qualified-type-def type-id='type-id-198' const='yes' id='type-id-322'/>
    <reference-type-def kind='lvalue' type-id='type-id-322' size-in-bits='64' id='type-id-323'/>
    <reference-type-def kind='rvalue' type-id='type-id-322' size-in-bits='64' id='type-id-324'/>
    <pointer-type-def type-id='type-id-322' size-in-bits='64' id='type-id-325'/>
    <qualified-type-def type-id='type-id-325' const='yes' id='type-id-326'/>
    <qualified-type-def type-id='type-id-203' const='yes' id='type-id-327'/>
    <pointer-type-def type-id='type-id-327' size-in-bits='64' id='type-id-328'/>
    <qualified-type-def type-id='type-id-328' const='yes' id='type-id-329'/>
    <qualified-type-def type-id='type-id-207' const='yes' id='type-id-330'/>
    <pointer-type-def type-id='type-id-330' size-in-bits='64' id='type-id-331'/>
    <qualified-type-def type-id='type-id-331' const='yes' id='type-id-332'/>
    <qualified-type-def type-id='type-id-211' const='yes' id='type-id-333'/>
    <pointer-type-def type-id='type-id-333' size-in-bits='64' id='type-id-334'/>
    <qualified-type-def type-id='type-id-213' const='yes' id='type-id-335'/>
    <pointer-type-def type-id='type-id-335' size-in-bits='64' id='type-id-336'/>
    <qualified-type-def type-id='type-id-336' const='yes' id='type-id-337'/>
    <qualified-type-def type-id='type-id-216' const='yes' id='type-id-338'/>
    <pointer-type-def type-id='type-id-338' size-in-bits='64' id='type-id-339'/>
    <qualified-type-def type-id='type-id-339' const='yes' id='type-id-340'/>
    <qualified-type-def type-id='type-id-219' const='yes' id='type-id-341'/>
    <pointer-type-def type-id='type-id-341' size-in-bits='64' id='type-id-342'/>
    <qualified-type-def type-id='type-id-342' const='yes' id='type-id-343'/>
    <qualified-type-def type-id='type-id-223' const='yes' id='type-id-344'/>
    <reference-type-def kind='lvalue' type-id='type-id-344' size-in-bits='64' id='type-id-345'/>
    <reference-type-def kind='rvalue' type-id='type-id-344' size-in-bits='64' id='type-id-346'/>
    <qualified-type-def type-id='type-id-347' const='yes' id='type-id-348'/>
    <reference-type-def kind='lvalue' type-id='type-id-348' size-in-bits='64' id='type-id-349'/>
    <qualified-type-def type-id='type-id-226' const='yes' id='type-id-350'/>
    <reference-type-def kind='lvalue' type-id='type-id-350' size-in-bits='64' id='type-id-351'/>
    <pointer-type-def type-id='type-id-350' size-in-bits='64' id='type-id-352'/>
    <qualified-type-def type-id='type-id-353' const='yes' id='type-id-354'/>
    <pointer-type-def type-id='type-id-354' size-in-bits='64' id='type-id-355'/>
    <qualified-type-def type-id='type-id-356' const='yes' id='type-id-357'/>
    <reference-type-def kind='lvalue' type-id='type-id-357' size-in-bits='64' id='type-id-358'/>
    <pointer-type-def type-id='type-id-357' size-in-bits='64' id='type-id-359'/>
    <qualified-type-def type-id='type-id-359' const='yes' id='type-id-360'/>
    <reference-type-def kind='lvalue' type-id='type-id-360' size-in-bits='64' id='type-id-361'/>
    <qualified-type-def type-id='type-id-231' const='yes' id='type-id-362'/>
    <pointer-type-def type-id='type-id-362' size-in-bits='64' id='type-id-363'/>
    <qualified-type-def type-id='type-id-363' const='yes' id='type-id-364'/>
    <qualified-type-def type-id='type-id-234' const='yes' id='type-id-365'/>
    <reference-type-def kind='lvalue' type-id='type-id-365' size-in-bits='64' id='type-id-366'/>
    <reference-type-def kind='rvalue' type-id='type-id-365' size-in-bits='64' id='type-id-367'/>
    <pointer-type-def type-id='type-id-365' size-in-bits='64' id='type-id-368'/>
    <qualified-type-def type-id='type-id-368' const='yes' id='type-id-369'/>
    <qualified-type-def type-id='type-id-239' const='yes' id='type-id-370'/>
    <reference-type-def kind='lvalue' type-id='type-id-370' size-in-bits='64' id='type-id-371'/>
    <reference-type-def kind='rvalue' type-id='type-id-370' size-in-bits='64' id='type-id-372'/>
    <qualified-type-def type-id='type-id-373' const='yes' id='type-id-374'/>
    <reference-type-def kind='lvalue' type-id='type-id-374' size-in-bits='64' id='type-id-375'/>
    <qualified-type-def type-id='type-id-141' const='yes' id='type-id-376'/>
    <pointer-type-def type-id='type-id-376' size-in-bits='64' id='type-id-377'/>
    <qualified-type-def type-id='type-id-76' const='yes' id='type-id-378'/>
    <reference-type-def kind='lvalue' type-id='type-id-378' size-in-bits='64' id='type-id-379'/>
    <qualified-type-def type-id='type-id-75' const='yes' id='type-id-380'/>
    <pointer-type-def type-id='type-id-380' size-in-bits='64' id='type-id-78'/>
    <qualified-type-def type-id='type-id-90' const='yes' id='type-id-381'/>
    <pointer-type-def type-id='type-id-381' size-in-bits='64' id='type-id-382'/>
    <qualified-type-def type-id='type-id-383' const='yes' id='type-id-384'/>
    <pointer-type-def type-id='type-id-384' size-in-bits='64' id='type-id-129'/>
    <qualified-type-def type-id='type-id-116' const='yes' id='type-id-385'/>
    <reference-type-def kind='lvalue' type-id='type-id-385' size-in-bits='64' id='type-id-386'/>
    <qualified-type-def type-id='type-id-114' const='yes' id='type-id-387'/>
    <reference-type-def kind='lvalue' type-id='type-id-387' size-in-bits='64' id='type-id-388'/>
    <reference-type-def kind='rvalue' type-id='type-id-387' size-in-bits='64' id='type-id-389'/>
    <pointer-type-def type-id='type-id-387' size-in-bits='64' id='type-id-390'/>
    <qualified-type-def type-id='type-id-139' const='yes' id='type-id-391'/>
    <pointer-type-def type-id='type-id-391' size-in-bits='64' id='type-id-392'/>
    <qualified-type-def type-id='type-id-56' const='yes' id='type-id-393'/>
    <reference-type-def kind='lvalue' type-id='type-id-393' size-in-bits='64' id='type-id-394'/>
    <reference-type-def kind='rvalue' type-id='type-id-393' size-in-bits='64' id='type-id-395'/>
    <pointer-type-def type-id='type-id-393' size-in-bits='64' id='type-id-396'/>
    <qualified-type-def type-id='type-id-59' const='yes' id='type-id-397'/>
    <pointer-type-def type-id='type-id-397' size-in-bits='64' id='type-id-398'/>
    <qualified-type-def type-id='type-id-123' const='yes' id='type-id-399'/>
    <pointer-type-def type-id='type-id-399' size-in-bits='64' id='type-id-126'/>
    <qualified-type-def type-id='type-id-119' const='yes' id='type-id-400'/>
    <reference-type-def kind='lvalue' type-id='type-id-400' size-in-bits='64' id='type-id-401'/>
    <qualified-type-def type-id='type-id-150' const='yes' id='type-id-402'/>
    <reference-type-def kind='lvalue' type-id='type-id-402' size-in-bits='64' id='type-id-403'/>
    <qualified-type-def type-id='type-id-149' const='yes' id='type-id-404'/>
    <pointer-type-def type-id='type-id-404' size-in-bits='64' id='type-id-152'/>
    <qualified-type-def type-id='type-id-112' const='yes' id='type-id-405'/>
    <reference-type-def kind='lvalue' type-id='type-id-405' size-in-bits='64' id='type-id-406'/>
    <reference-type-def kind='rvalue' type-id='type-id-405' size-in-bits='64' id='type-id-407'/>
    <pointer-type-def type-id='type-id-405' size-in-bits='64' id='type-id-408'/>
    <qualified-type-def type-id='type-id-267' const='yes' id='type-id-409'/>
    <pointer-type-def type-id='type-id-409' size-in-bits='64' id='type-id-410'/>
    <qualified-type-def type-id='type-id-271' const='yes' id='type-id-411'/>
    <reference-type-def kind='lvalue' type-id='type-id-411' size-in-bits='64' id='type-id-412'/>
    <qualified-type-def type-id='type-id-273' const='yes' id='type-id-413'/>
    <reference-type-def kind='lvalue' type-id='type-id-413' size-in-bits='64' id='type-id-414'/>
    <qualified-type-def type-id='type-id-275' const='yes' id='type-id-415'/>
    <reference-type-def kind='lvalue' type-id='type-id-415' size-in-bits='64' id='type-id-416'/>
    <pointer-type-def type-id='type-id-415' size-in-bits='64' id='type-id-417'/>
    <qualified-type-def type-id='type-id-417' const='yes' id='type-id-418'/>
    <qualified-type-def type-id='type-id-279' const='yes' id='type-id-419'/>
    <pointer-type-def type-id='type-id-419' size-in-bits='64' id='type-id-420'/>
    <qualified-type-def type-id='type-id-282' const='yes' id='type-id-421'/>
    <pointer-type-def type-id='type-id-421' size-in-bits='64' id='type-id-422'/>
    <qualified-type-def type-id='type-id-285' const='yes' id='type-id-423'/>
    <reference-type-def kind='lvalue' type-id='type-id-423' size-in-bits='64' id='type-id-424'/>
    <pointer-type-def type-id='type-id-423' size-in-bits='64' id='type-id-425'/>
    <qualified-type-def type-id='type-id-425' const='yes' id='type-id-426'/>
    <qualified-type-def type-id='type-id-289' const='yes' id='type-id-427'/>
    <reference-type-def kind='lvalue' type-id='type-id-427' size-in-bits='64' id='type-id-428'/>
    <pointer-type-def type-id='type-id-427' size-in-bits='64' id='type-id-429'/>
    <qualified-type-def type-id='type-id-430' const='yes' id='type-id-431'/>
    <reference-type-def kind='lvalue' type-id='type-id-431' size-in-bits='64' id='type-id-432'/>
    <qualified-type-def type-id='type-id-292' const='yes' id='type-id-433'/>
    <reference-type-def kind='lvalue' type-id='type-id-433' size-in-bits='64' id='type-id-434'/>
    <pointer-type-def type-id='type-id-433' size-in-bits='64' id='type-id-435'/>
    <qualified-type-def type-id='type-id-435' const='yes' id='type-id-436'/>
    <qualified-type-def type-id='type-id-295' const='yes' id='type-id-437'/>
    <reference-type-def kind='lvalue' type-id='type-id-437' size-in-bits='64' id='type-id-438'/>
    <pointer-type-def type-id='type-id-437' size-in-bits='64' id='type-id-439'/>
    <qualified-type-def type-id='type-id-439' const='yes' id='type-id-440'/>
    <qualified-type-def type-id='type-id-169' const='yes' id='type-id-441'/>
    <pointer-type-def type-id='type-id-441' size-in-bits='64' id='type-id-165'/>
    <qualified-type-def type-id='type-id-1' const='yes' id='type-id-442'/>
    <reference-type-def kind='lvalue' type-id='type-id-442' size-in-bits='64' id='type-id-443'/>
    <reference-type-def kind='rvalue' type-id='type-id-442' size-in-bits='64' id='type-id-444'/>
    <qualified-type-def type-id='type-id-2' const='yes' id='type-id-445'/>
    <reference-type-def kind='lvalue' type-id='type-id-445' size-in-bits='64' id='type-id-446'/>
    <pointer-type-def type-id='type-id-445' size-in-bits='64' id='type-id-81'/>
    <pointer-type-def type-id='type-id-447' size-in-bits='64' id='type-id-110'/>
    <pointer-type-def type-id='type-id-448' size-in-bits='64' id='type-id-74'/>
    <qualified-type-def type-id='type-id-81' const='yes' id='type-id-449'/>
    <reference-type-def kind='lvalue' type-id='type-id-449' size-in-bits='64' id='type-id-450'/>
    <pointer-type-def type-id='type-id-81' size-in-bits='64' id='type-id-451'/>
    <qualified-type-def type-id='type-id-19' const='yes' id='type-id-452'/>
    <reference-type-def kind='lvalue' type-id='type-id-452' size-in-bits='64' id='type-id-453'/>
    <reference-type-def kind='rvalue' type-id='type-id-452' size-in-bits='64' id='type-id-454'/>
    <qualified-type-def type-id='type-id-20' const='yes' id='type-id-455'/>
    <reference-type-def kind='lvalue' type-id='type-id-455' size-in-bits='64' id='type-id-456'/>
    <reference-type-def kind='rvalue' type-id='type-id-455' size-in-bits='64' id='type-id-457'/>
    <qualified-type-def type-id='type-id-156' const='yes' id='type-id-458'/>
    <pointer-type-def type-id='type-id-458' size-in-bits='64' id='type-id-459'/>
    <qualified-type-def type-id='type-id-21' const='yes' id='type-id-460'/>
    <reference-type-def kind='lvalue' type-id='type-id-460' size-in-bits='64' id='type-id-461'/>
    <reference-type-def kind='rvalue' type-id='type-id-460' size-in-bits='64' id='type-id-462'/>
    <qualified-type-def type-id='type-id-23' const='yes' id='type-id-463'/>
    <reference-type-def kind='lvalue' type-id='type-id-463' size-in-bits='64' id='type-id-464'/>
    <reference-type-def kind='rvalue' type-id='type-id-463' size-in-bits='64' id='type-id-465'/>
    <qualified-type-def type-id='type-id-184' const='yes' id='type-id-466'/>
    <pointer-type-def type-id='type-id-466' size-in-bits='64' id='type-id-467'/>
    <qualified-type-def type-id='type-id-26' const='yes' id='type-id-468'/>
    <reference-type-def kind='lvalue' type-id='type-id-468' size-in-bits='64' id='type-id-469'/>
    <reference-type-def kind='rvalue' type-id='type-id-468' size-in-bits='64' id='type-id-470'/>
    <qualified-type-def type-id='type-id-27' const='yes' id='type-id-471'/>
    <reference-type-def kind='lvalue' type-id='type-id-471' size-in-bits='64' id='type-id-472'/>
    <reference-type-def kind='rvalue' type-id='type-id-471' size-in-bits='64' id='type-id-473'/>
    <qualified-type-def type-id='type-id-474' const='yes' id='type-id-475'/>
    <reference-type-def kind='lvalue' type-id='type-id-475' size-in-bits='64' id='type-id-476'/>
    <qualified-type-def type-id='type-id-477' const='yes' id='type-id-478'/>
    <reference-type-def kind='lvalue' type-id='type-id-478' size-in-bits='64' id='type-id-479'/>
    <qualified-type-def type-id='type-id-480' const='yes' id='type-id-481'/>
    <reference-type-def kind='lvalue' type-id='type-id-481' size-in-bits='64' id='type-id-482'/>
    <qualified-type-def type-id='type-id-483' const='yes' id='type-id-484'/>
    <reference-type-def kind='lvalue' type-id='type-id-484' size-in-bits='64' id='type-id-485'/>
    <qualified-type-def type-id='type-id-486' const='yes' id='type-id-487'/>
    <reference-type-def kind='lvalue' type-id='type-id-487' size-in-bits='64' id='type-id-488'/>
    <qualified-type-def type-id='type-id-489' const='yes' id='type-id-490'/>
    <reference-type-def kind='lvalue' type-id='type-id-490' size-in-bits='64' id='type-id-491'/>
    <qualified-type-def type-id='type-id-492' const='yes' id='type-id-493'/>
    <pointer-type-def type-id='type-id-493' size-in-bits='64' id='type-id-494'/>
    <qualified-type-def type-id='type-id-494' const='yes' id='type-id-495'/>
    <qualified-type-def type-id='type-id-496' const='yes' id='type-id-497'/>
    <reference-type-def kind='lvalue' type-id='type-id-497' size-in-bits='64' id='type-id-498'/>
    <qualified-type-def type-id='type-id-499' const='yes' id='type-id-500'/>
    <reference-type-def kind='lvalue' type-id='type-id-500' size-in-bits='64' id='type-id-501'/>
    <qualified-type-def type-id='type-id-502' const='yes' id='type-id-503'/>
    <reference-type-def kind='lvalue' type-id='type-id-503' size-in-bits='64' id='type-id-504'/>
    <qualified-type-def type-id='type-id-505' const='yes' id='type-id-506'/>
    <reference-type-def kind='lvalue' type-id='type-id-506' size-in-bits='64' id='type-id-507'/>
    <reference-type-def kind='rvalue' type-id='type-id-506' size-in-bits='64' id='type-id-508'/>
    <pointer-type-def type-id='type-id-506' size-in-bits='64' id='type-id-509'/>
    <qualified-type-def type-id='type-id-509' const='yes' id='type-id-510'/>
    <qualified-type-def type-id='type-id-511' const='yes' id='type-id-512'/>
    <reference-type-def kind='lvalue' type-id='type-id-512' size-in-bits='64' id='type-id-513'/>
    <qualified-type-def type-id='type-id-514' const='yes' id='type-id-515'/>
    <qualified-type-def type-id='type-id-516' const='yes' id='type-id-517'/>
    <pointer-type-def type-id='type-id-517' size-in-bits='64' id='type-id-518'/>
    <qualified-type-def type-id='type-id-518' const='yes' id='type-id-519'/>
    <qualified-type-def type-id='type-id-520' const='yes' id='type-id-521'/>
    <reference-type-def kind='lvalue' type-id='type-id-521' size-in-bits='64' id='type-id-522'/>
    <qualified-type-def type-id='type-id-523' const='yes' id='type-id-524'/>
    <reference-type-def kind='lvalue' type-id='type-id-524' size-in-bits='64' id='type-id-525'/>
    <qualified-type-def type-id='type-id-526' const='yes' id='type-id-527'/>
    <reference-type-def kind='lvalue' type-id='type-id-527' size-in-bits='64' id='type-id-528'/>
    <qualified-type-def type-id='type-id-529' const='yes' id='type-id-530'/>
    <reference-type-def kind='lvalue' type-id='type-id-530' size-in-bits='64' id='type-id-531'/>
    <qualified-type-def type-id='type-id-532' const='yes' id='type-id-533'/>
    <reference-type-def kind='lvalue' type-id='type-id-533' size-in-bits='64' id='type-id-534'/>
    <qualified-type-def type-id='type-id-535' const='yes' id='type-id-536'/>
    <reference-type-def kind='lvalue' type-id='type-id-536' size-in-bits='64' id='type-id-537'/>
    <qualified-type-def type-id='type-id-538' const='yes' id='type-id-539'/>
    <reference-type-def kind='lvalue' type-id='type-id-539' size-in-bits='64' id='type-id-540'/>
    <qualified-type-def type-id='type-id-541' const='yes' id='type-id-542'/>
    <reference-type-def kind='lvalue' type-id='type-id-542' size-in-bits='64' id='type-id-543'/>
    <qualified-type-def type-id='type-id-544' const='yes' id='type-id-545'/>
    <reference-type-def kind='lvalue' type-id='type-id-545' size-in-bits='64' id='type-id-546'/>
    <qualified-type-def type-id='type-id-547' const='yes' id='type-id-548'/>
    <reference-type-def kind='lvalue' type-id='type-id-548' size-in-bits='64' id='type-id-549'/>
    <qualified-type-def type-id='type-id-550' const='yes' id='type-id-551'/>
    <reference-type-def kind='lvalue' type-id='type-id-551' size-in-bits='64' id='type-id-552'/>
    <qualified-type-def type-id='type-id-553' const='yes' id='type-id-554'/>
    <reference-type-def kind='lvalue' type-id='type-id-554' size-in-bits='64' id='type-id-555'/>
    <qualified-type-def type-id='type-id-556' const='yes' id='type-id-557'/>
    <reference-type-def kind='lvalue' type-id='type-id-557' size-in-bits='64' id='type-id-558'/>
    <qualified-type-def type-id='type-id-559' const='yes' id='type-id-560'/>
    <reference-type-def kind='lvalue' type-id='type-id-560' size-in-bits='64' id='type-id-561'/>
    <qualified-type-def type-id='type-id-562' const='yes' id='type-id-563'/>
    <reference-type-def kind='lvalue' type-id='type-id-563' size-in-bits='64' id='type-id-564'/>
    <qualified-type-def type-id='type-id-565' const='yes' id='type-id-566'/>
    <reference-type-def kind='lvalue' type-id='type-id-566' size-in-bits='64' id='type-id-567'/>
    <qualified-type-def type-id='type-id-568' const='yes' id='type-id-569'/>
    <reference-type-def kind='lvalue' type-id='type-id-569' size-in-bits='64' id='type-id-570'/>
    <qualified-type-def type-id='type-id-571' const='yes' id='type-id-572'/>
    <reference-type-def kind='lvalue' type-id='type-id-572' size-in-bits='64' id='type-id-573'/>
    <qualified-type-def type-id='type-id-574' const='yes' id='type-id-575'/>
    <reference-type-def kind='lvalue' type-id='type-id-575' size-in-bits='64' id='type-id-576'/>
    <qualified-type-def type-id='type-id-577' const='yes' id='type-id-578'/>
    <reference-type-def kind='lvalue' type-id='type-id-578' size-in-bits='64' id='type-id-579'/>
    <qualified-type-def type-id='type-id-580' const='yes' id='type-id-581'/>
    <pointer-type-def type-id='type-id-581' size-in-bits='64' id='type-id-582'/>
    <qualified-type-def type-id='type-id-582' const='yes' id='type-id-583'/>
    <qualified-type-def type-id='type-id-28' const='yes' id='type-id-584'/>
    <pointer-type-def type-id='type-id-584' size-in-bits='64' id='type-id-585'/>
    <qualified-type-def type-id='type-id-585' const='yes' id='type-id-586'/>
    <qualified-type-def type-id='type-id-587' const='yes' id='type-id-588'/>
    <reference-type-def kind='lvalue' type-id='type-id-588' size-in-bits='64' id='type-id-589'/>
    <qualified-type-def type-id='type-id-590' const='yes' id='type-id-591'/>
    <pointer-type-def type-id='type-id-591' size-in-bits='64' id='type-id-592'/>
    <qualified-type-def type-id='type-id-592' const='yes' id='type-id-593'/>
    <qualified-type-def type-id='type-id-31' const='yes' id='type-id-594'/>
    <pointer-type-def type-id='type-id-594' size-in-bits='64' id='type-id-595'/>
    <qualified-type-def type-id='type-id-595' const='yes' id='type-id-596'/>
    <qualified-type-def type-id='type-id-597' const='yes' id='type-id-598'/>
    <reference-type-def kind='lvalue' type-id='type-id-598' size-in-bits='64' id='type-id-599'/>
    <qualified-type-def type-id='type-id-600' const='yes' id='type-id-601'/>
    <pointer-type-def type-id='type-id-601' size-in-bits='64' id='type-id-602'/>
    <qualified-type-def type-id='type-id-602' const='yes' id='type-id-603'/>
    <qualified-type-def type-id='type-id-33' const='yes' id='type-id-604'/>
    <pointer-type-def type-id='type-id-604' size-in-bits='64' id='type-id-605'/>
    <qualified-type-def type-id='type-id-605' const='yes' id='type-id-606'/>
    <qualified-type-def type-id='type-id-607' const='yes' id='type-id-608'/>
    <reference-type-def kind='lvalue' type-id='type-id-608' size-in-bits='64' id='type-id-609'/>
    <qualified-type-def type-id='type-id-610' const='yes' id='type-id-611'/>
    <pointer-type-def type-id='type-id-611' size-in-bits='64' id='type-id-612'/>
    <qualified-type-def type-id='type-id-612' const='yes' id='type-id-613'/>
    <qualified-type-def type-id='type-id-36' const='yes' id='type-id-614'/>
    <pointer-type-def type-id='type-id-614' size-in-bits='64' id='type-id-615'/>
    <qualified-type-def type-id='type-id-615' const='yes' id='type-id-616'/>
    <qualified-type-def type-id='type-id-617' const='yes' id='type-id-618'/>
    <reference-type-def kind='lvalue' type-id='type-id-618' size-in-bits='64' id='type-id-619'/>
    <qualified-type-def type-id='type-id-620' const='yes' id='type-id-621'/>
    <pointer-type-def type-id='type-id-621' size-in-bits='64' id='type-id-622'/>
    <qualified-type-def type-id='type-id-622' const='yes' id='type-id-623'/>
    <qualified-type-def type-id='type-id-38' const='yes' id='type-id-624'/>
    <pointer-type-def type-id='type-id-624' size-in-bits='64' id='type-id-625'/>
    <qualified-type-def type-id='type-id-625' const='yes' id='type-id-626'/>
    <qualified-type-def type-id='type-id-627' const='yes' id='type-id-628'/>
    <reference-type-def kind='lvalue' type-id='type-id-628' size-in-bits='64' id='type-id-629'/>
    <qualified-type-def type-id='type-id-630' const='yes' id='type-id-631'/>
    <pointer-type-def type-id='type-id-631' size-in-bits='64' id='type-id-632'/>
    <qualified-type-def type-id='type-id-632' const='yes' id='type-id-633'/>
    <qualified-type-def type-id='type-id-40' const='yes' id='type-id-634'/>
    <pointer-type-def type-id='type-id-634' size-in-bits='64' id='type-id-635'/>
    <qualified-type-def type-id='type-id-635' const='yes' id='type-id-636'/>
    <qualified-type-def type-id='type-id-637' const='yes' id='type-id-638'/>
    <reference-type-def kind='lvalue' type-id='type-id-638' size-in-bits='64' id='type-id-639'/>
    <qualified-type-def type-id='type-id-640' const='yes' id='type-id-641'/>
    <pointer-type-def type-id='type-id-641' size-in-bits='64' id='type-id-642'/>
    <qualified-type-def type-id='type-id-643' const='yes' id='type-id-644'/>
    <pointer-type-def type-id='type-id-644' size-in-bits='64' id='type-id-645'/>
    <qualified-type-def type-id='type-id-645' const='yes' id='type-id-646'/>
    <qualified-type-def type-id='type-id-647' const='yes' id='type-id-648'/>
    <pointer-type-def type-id='type-id-648' size-in-bits='64' id='type-id-649'/>
    <qualified-type-def type-id='type-id-650' const='yes' id='type-id-651'/>
    <pointer-type-def type-id='type-id-651' size-in-bits='64' id='type-id-652'/>
    <qualified-type-def type-id='type-id-652' const='yes' id='type-id-653'/>
    <qualified-type-def type-id='type-id-654' const='yes' id='type-id-655'/>
    <pointer-type-def type-id='type-id-655' size-in-bits='64' id='type-id-656'/>
    <qualified-type-def type-id='type-id-657' const='yes' id='type-id-658'/>
    <pointer-type-def type-id='type-id-658' size-in-bits='64' id='type-id-659'/>
    <qualified-type-def type-id='type-id-660' const='yes' id='type-id-661'/>
    <pointer-type-def type-id='type-id-661' size-in-bits='64' id='type-id-662'/>
    <qualified-type-def type-id='type-id-663' const='yes' id='type-id-664'/>
    <pointer-type-def type-id='type-id-664' size-in-bits='64' id='type-id-665'/>
    <qualified-type-def type-id='type-id-665' const='yes' id='type-id-666'/>
    <qualified-type-def type-id='type-id-667' const='yes' id='type-id-668'/>
    <pointer-type-def type-id='type-id-668' size-in-bits='64' id='type-id-669'/>
    <qualified-type-def type-id='type-id-669' const='yes' id='type-id-670'/>
    <qualified-type-def type-id='type-id-671' const='yes' id='type-id-672'/>
    <pointer-type-def type-id='type-id-672' size-in-bits='64' id='type-id-673'/>
    <qualified-type-def type-id='type-id-673' const='yes' id='type-id-674'/>
    <qualified-type-def type-id='type-id-675' const='yes' id='type-id-676'/>
    <pointer-type-def type-id='type-id-676' size-in-bits='64' id='type-id-677'/>
    <qualified-type-def type-id='type-id-677' const='yes' id='type-id-678'/>
    <qualified-type-def type-id='type-id-679' const='yes' id='type-id-680'/>
    <pointer-type-def type-id='type-id-680' size-in-bits='64' id='type-id-681'/>
    <qualified-type-def type-id='type-id-681' const='yes' id='type-id-682'/>
    <qualified-type-def type-id='type-id-683' const='yes' id='type-id-684'/>
    <pointer-type-def type-id='type-id-684' size-in-bits='64' id='type-id-685'/>
    <qualified-type-def type-id='type-id-685' const='yes' id='type-id-686'/>
    <qualified-type-def type-id='type-id-687' const='yes' id='type-id-688'/>
    <pointer-type-def type-id='type-id-688' size-in-bits='64' id='type-id-689'/>
    <qualified-type-def type-id='type-id-689' const='yes' id='type-id-690'/>
    <qualified-type-def type-id='type-id-691' const='yes' id='type-id-692'/>
    <pointer-type-def type-id='type-id-692' size-in-bits='64' id='type-id-693'/>
    <qualified-type-def type-id='type-id-693' const='yes' id='type-id-694'/>
    <qualified-type-def type-id='type-id-695' const='yes' id='type-id-696'/>
    <pointer-type-def type-id='type-id-696' size-in-bits='64' id='type-id-697'/>
    <qualified-type-def type-id='type-id-697' const='yes' id='type-id-698'/>
    <qualified-type-def type-id='type-id-699' const='yes' id='type-id-700'/>
    <pointer-type-def type-id='type-id-700' size-in-bits='64' id='type-id-701'/>
    <qualified-type-def type-id='type-id-702' const='yes' id='type-id-703'/>
    <pointer-type-def type-id='type-id-703' size-in-bits='64' id='type-id-704'/>
    <qualified-type-def type-id='type-id-704' const='yes' id='type-id-705'/>
    <qualified-type-def type-id='type-id-706' const='yes' id='type-id-707'/>
    <pointer-type-def type-id='type-id-707' size-in-bits='64' id='type-id-708'/>
    <qualified-type-def type-id='type-id-708' const='yes' id='type-id-709'/>
    <qualified-type-def type-id='type-id-710' const='yes' id='type-id-711'/>
    <pointer-type-def type-id='type-id-711' size-in-bits='64' id='type-id-712'/>
    <qualified-type-def type-id='type-id-712' const='yes' id='type-id-713'/>
    <qualified-type-def type-id='type-id-714' const='yes' id='type-id-715'/>
    <reference-type-def kind='lvalue' type-id='type-id-715' size-in-bits='64' id='type-id-716'/>
    <qualified-type-def type-id='type-id-717' const='yes' id='type-id-718'/>
    <reference-type-def kind='lvalue' type-id='type-id-718' size-in-bits='64' id='type-id-719'/>
    <qualified-type-def type-id='type-id-720' const='yes' id='type-id-721'/>
    <reference-type-def kind='lvalue' type-id='type-id-721' size-in-bits='64' id='type-id-722'/>
    <qualified-type-def type-id='type-id-723' const='yes' id='type-id-724'/>
    <reference-type-def kind='lvalue' type-id='type-id-724' size-in-bits='64' id='type-id-725'/>
    <qualified-type-def type-id='type-id-726' const='yes' id='type-id-727'/>
    <reference-type-def kind='lvalue' type-id='type-id-727' size-in-bits='64' id='type-id-728'/>
    <qualified-type-def type-id='type-id-729' const='yes' id='type-id-730'/>
    <reference-type-def kind='lvalue' type-id='type-id-730' size-in-bits='64' id='type-id-731'/>
    <qualified-type-def type-id='type-id-732' const='yes' id='type-id-733'/>
    <reference-type-def kind='lvalue' type-id='type-id-733' size-in-bits='64' id='type-id-734'/>
    <qualified-type-def type-id='type-id-735' const='yes' id='type-id-736'/>
    <reference-type-def kind='lvalue' type-id='type-id-736' size-in-bits='64' id='type-id-737'/>
    <qualified-type-def type-id='type-id-738' const='yes' id='type-id-739'/>
    <reference-type-def kind='lvalue' type-id='type-id-739' size-in-bits='64' id='type-id-740'/>
    <qualified-type-def type-id='type-id-741' const='yes' id='type-id-742'/>
    <reference-type-def kind='lvalue' type-id='type-id-742' size-in-bits='64' id='type-id-743'/>
    <qualified-type-def type-id='type-id-744' const='yes' id='type-id-745'/>
    <reference-type-def kind='lvalue' type-id='type-id-745' size-in-bits='64' id='type-id-746'/>
    <qualified-type-def type-id='type-id-747' const='yes' id='type-id-748'/>
    <reference-type-def kind='lvalue' type-id='type-id-748' size-in-bits='64' id='type-id-749'/>
    <qualified-type-def type-id='type-id-750' const='yes' id='type-id-751'/>
    <reference-type-def kind='lvalue' type-id='type-id-751' size-in-bits='64' id='type-id-752'/>
    <qualified-type-def type-id='type-id-753' const='yes' id='type-id-754'/>
    <reference-type-def kind='lvalue' type-id='type-id-754' size-in-bits='64' id='type-id-755'/>
    <qualified-type-def type-id='type-id-756' const='yes' id='type-id-757'/>
    <reference-type-def kind='lvalue' type-id='type-id-757' size-in-bits='64' id='type-id-758'/>
    <qualified-type-def type-id='type-id-759' const='yes' id='type-id-760'/>
    <reference-type-def kind='lvalue' type-id='type-id-760' size-in-bits='64' id='type-id-761'/>
    <qualified-type-def type-id='type-id-762' const='yes' id='type-id-763'/>
    <reference-type-def kind='lvalue' type-id='type-id-763' size-in-bits='64' id='type-id-764'/>
    <qualified-type-def type-id='type-id-765' const='yes' id='type-id-766'/>
    <reference-type-def kind='lvalue' type-id='type-id-766' size-in-bits='64' id='type-id-767'/>
    <qualified-type-def type-id='type-id-768' const='yes' id='type-id-769'/>
    <reference-type-def kind='lvalue' type-id='type-id-769' size-in-bits='64' id='type-id-770'/>
    <qualified-type-def type-id='type-id-771' const='yes' id='type-id-772'/>
    <reference-type-def kind='lvalue' type-id='type-id-772' size-in-bits='64' id='type-id-773'/>
    <qualified-type-def type-id='type-id-774' const='yes' id='type-id-775'/>
    <pointer-type-def type-id='type-id-775' size-in-bits='64' id='type-id-776'/>
    <qualified-type-def type-id='type-id-776' const='yes' id='type-id-777'/>
    <qualified-type-def type-id='type-id-778' const='yes' id='type-id-779'/>
    <pointer-type-def type-id='type-id-779' size-in-bits='64' id='type-id-780'/>
    <qualified-type-def type-id='type-id-780' const='yes' id='type-id-781'/>
    <qualified-type-def type-id='type-id-782' const='yes' id='type-id-783'/>
    <pointer-type-def type-id='type-id-783' size-in-bits='64' id='type-id-784'/>
    <qualified-type-def type-id='type-id-785' const='yes' id='type-id-786'/>
    <pointer-type-def type-id='type-id-786' size-in-bits='64' id='type-id-787'/>
    <qualified-type-def type-id='type-id-787' const='yes' id='type-id-788'/>
    <qualified-type-def type-id='type-id-789' const='yes' id='type-id-790'/>
    <pointer-type-def type-id='type-id-790' size-in-bits='64' id='type-id-791'/>
    <qualified-type-def type-id='type-id-791' const='yes' id='type-id-792'/>
    <qualified-type-def type-id='type-id-793' const='yes' id='type-id-794'/>
    <pointer-type-def type-id='type-id-794' size-in-bits='64' id='type-id-795'/>
    <qualified-type-def type-id='type-id-795' const='yes' id='type-id-796'/>
    <qualified-type-def type-id='type-id-797' const='yes' id='type-id-798'/>
    <qualified-type-def type-id='type-id-799' const='yes' id='type-id-800'/>
    <qualified-type-def type-id='type-id-801' const='yes' id='type-id-802'/>
    <qualified-type-def type-id='type-id-803' const='yes' id='type-id-804'/>
    <qualified-type-def type-id='type-id-805' const='yes' id='type-id-806'/>
    <qualified-type-def type-id='type-id-807' const='yes' id='type-id-808'/>
    <qualified-type-def type-id='type-id-809' const='yes' id='type-id-810'/>
    <reference-type-def kind='lvalue' type-id='type-id-810' size-in-bits='64' id='type-id-811'/>
    <pointer-type-def type-id='type-id-810' size-in-bits='64' id='type-id-812'/>
    <qualified-type-def type-id='type-id-813' const='yes' id='type-id-814'/>
    <reference-type-def kind='lvalue' type-id='type-id-814' size-in-bits='64' id='type-id-815'/>
    <qualified-type-def type-id='type-id-816' const='yes' id='type-id-817'/>
    <reference-type-def kind='lvalue' type-id='type-id-817' size-in-bits='64' id='type-id-818'/>
    <qualified-type-def type-id='type-id-819' const='yes' id='type-id-820'/>
    <reference-type-def kind='lvalue' type-id='type-id-820' size-in-bits='64' id='type-id-821'/>
    <qualified-type-def type-id='type-id-822' const='yes' id='type-id-823'/>
    <reference-type-def kind='lvalue' type-id='type-id-823' size-in-bits='64' id='type-id-824'/>
    <qualified-type-def type-id='type-id-825' const='yes' id='type-id-826'/>
    <pointer-type-def type-id='type-id-826' size-in-bits='64' id='type-id-827'/>
    <qualified-type-def type-id='type-id-828' const='yes' id='type-id-829'/>
    <reference-type-def kind='lvalue' type-id='type-id-829' size-in-bits='64' id='type-id-830'/>
    <reference-type-def kind='rvalue' type-id='type-id-829' size-in-bits='64' id='type-id-831'/>
    <pointer-type-def type-id='type-id-829' size-in-bits='64' id='type-id-832'/>
    <qualified-type-def type-id='type-id-832' const='yes' id='type-id-833'/>
    <qualified-type-def type-id='type-id-834' const='yes' id='type-id-835'/>
    <reference-type-def kind='lvalue' type-id='type-id-835' size-in-bits='64' id='type-id-836'/>
    <pointer-type-def type-id='type-id-835' size-in-bits='64' id='type-id-837'/>
    <qualified-type-def type-id='type-id-838' const='yes' id='type-id-839'/>
    <reference-type-def kind='lvalue' type-id='type-id-839' size-in-bits='64' id='type-id-840'/>
    <pointer-type-def type-id='type-id-839' size-in-bits='64' id='type-id-841'/>
    <qualified-type-def type-id='type-id-842' const='yes' id='type-id-843'/>
    <reference-type-def kind='lvalue' type-id='type-id-843' size-in-bits='64' id='type-id-844'/>
    <qualified-type-def type-id='type-id-845' const='yes' id='type-id-846'/>
    <pointer-type-def type-id='type-id-846' size-in-bits='64' id='type-id-847'/>
    <qualified-type-def type-id='type-id-848' const='yes' id='type-id-849'/>
    <pointer-type-def type-id='type-id-849' size-in-bits='64' id='type-id-850'/>
    <qualified-type-def type-id='type-id-851' const='yes' id='type-id-852'/>
    <pointer-type-def type-id='type-id-852' size-in-bits='64' id='type-id-853'/>
    <qualified-type-def type-id='type-id-853' const='yes' id='type-id-854'/>
    <qualified-type-def type-id='type-id-855' const='yes' id='type-id-856'/>
    <pointer-type-def type-id='type-id-856' size-in-bits='64' id='type-id-857'/>
    <qualified-type-def type-id='type-id-858' const='yes' id='type-id-859'/>
    <pointer-type-def type-id='type-id-859' size-in-bits='64' id='type-id-860'/>
    <qualified-type-def type-id='type-id-861' const='yes' id='type-id-862'/>
    <pointer-type-def type-id='type-id-862' size-in-bits='64' id='type-id-863'/>
    <qualified-type-def type-id='type-id-864' const='yes' id='type-id-865'/>
    <pointer-type-def type-id='type-id-865' size-in-bits='64' id='type-id-866'/>
    <qualified-type-def type-id='type-id-867' const='yes' id='type-id-868'/>
    <pointer-type-def type-id='type-id-868' size-in-bits='64' id='type-id-869'/>
    <qualified-type-def type-id='type-id-870' const='yes' id='type-id-871'/>
    <pointer-type-def type-id='type-id-871' size-in-bits='64' id='type-id-872'/>
    <qualified-type-def type-id='type-id-873' const='yes' id='type-id-874'/>
    <pointer-type-def type-id='type-id-874' size-in-bits='64' id='type-id-875'/>
    <qualified-type-def type-id='type-id-875' const='yes' id='type-id-876'/>
    <qualified-type-def type-id='type-id-877' const='yes' id='type-id-878'/>
    <qualified-type-def type-id='type-id-879' const='yes' id='type-id-880'/>
    <reference-type-def kind='lvalue' type-id='type-id-880' size-in-bits='64' id='type-id-881'/>
    <pointer-type-def type-id='type-id-880' size-in-bits='64' id='type-id-882'/>
    <qualified-type-def type-id='type-id-882' const='yes' id='type-id-883'/>
    <qualified-type-def type-id='type-id-884' const='yes' id='type-id-885'/>
    <reference-type-def kind='lvalue' type-id='type-id-885' size-in-bits='64' id='type-id-886'/>
    <pointer-type-def type-id='type-id-885' size-in-bits='64' id='type-id-887'/>
    <qualified-type-def type-id='type-id-887' const='yes' id='type-id-888'/>
    <qualified-type-def type-id='type-id-889' const='yes' id='type-id-890'/>
    <pointer-type-def type-id='type-id-890' size-in-bits='64' id='type-id-891'/>
    <qualified-type-def type-id='type-id-892' const='yes' id='type-id-893'/>
    <reference-type-def kind='lvalue' type-id='type-id-893' size-in-bits='64' id='type-id-894'/>
    <pointer-type-def type-id='type-id-893' size-in-bits='64' id='type-id-895'/>
    <qualified-type-def type-id='type-id-895' const='yes' id='type-id-896'/>
    <qualified-type-def type-id='type-id-897' const='yes' id='type-id-898'/>
    <reference-type-def kind='lvalue' type-id='type-id-898' size-in-bits='64' id='type-id-899'/>
    <pointer-type-def type-id='type-id-898' size-in-bits='64' id='type-id-900'/>
    <qualified-type-def type-id='type-id-900' const='yes' id='type-id-901'/>
    <qualified-type-def type-id='type-id-902' const='yes' id='type-id-903'/>
    <reference-type-def kind='lvalue' type-id='type-id-903' size-in-bits='64' id='type-id-904'/>
    <pointer-type-def type-id='type-id-903' size-in-bits='64' id='type-id-905'/>
    <qualified-type-def type-id='type-id-905' const='yes' id='type-id-906'/>
    <qualified-type-def type-id='type-id-907' const='yes' id='type-id-908'/>
    <reference-type-def kind='lvalue' type-id='type-id-908' size-in-bits='64' id='type-id-909'/>
    <pointer-type-def type-id='type-id-908' size-in-bits='64' id='type-id-910'/>
    <qualified-type-def type-id='type-id-911' const='yes' id='type-id-912'/>
    <reference-type-def kind='lvalue' type-id='type-id-912' size-in-bits='64' id='type-id-913'/>
    <pointer-type-def type-id='type-id-912' size-in-bits='64' id='type-id-914'/>
    <qualified-type-def type-id='type-id-914' const='yes' id='type-id-915'/>
    <qualified-type-def type-id='type-id-916' const='yes' id='type-id-917'/>
    <reference-type-def kind='lvalue' type-id='type-id-917' size-in-bits='64' id='type-id-918'/>
    <pointer-type-def type-id='type-id-917' size-in-bits='64' id='type-id-919'/>
    <qualified-type-def type-id='type-id-919' const='yes' id='type-id-920'/>
    <qualified-type-def type-id='type-id-921' const='yes' id='type-id-922'/>
    <reference-type-def kind='lvalue' type-id='type-id-922' size-in-bits='64' id='type-id-923'/>
    <pointer-type-def type-id='type-id-922' size-in-bits='64' id='type-id-924'/>
    <qualified-type-def type-id='type-id-924' const='yes' id='type-id-925'/>
    <qualified-type-def type-id='type-id-926' const='yes' id='type-id-927'/>
    <reference-type-def kind='lvalue' type-id='type-id-927' size-in-bits='64' id='type-id-928'/>
    <qualified-type-def type-id='type-id-929' const='yes' id='type-id-930'/>
    <reference-type-def kind='lvalue' type-id='type-id-930' size-in-bits='64' id='type-id-931'/>
    <qualified-type-def type-id='type-id-932' const='yes' id='type-id-933'/>
    <qualified-type-def type-id='type-id-934' const='yes' id='type-id-935'/>
    <reference-type-def kind='lvalue' type-id='type-id-935' size-in-bits='64' id='type-id-936'/>
    <qualified-type-def type-id='type-id-191' const='yes' id='type-id-937'/>
    <pointer-type-def type-id='type-id-937' size-in-bits='64' id='type-id-938'/>
    <qualified-type-def type-id='type-id-58' const='yes' id='type-id-939'/>
    <qualified-type-def type-id='type-id-134' const='yes' id='type-id-940'/>
    <pointer-type-def type-id='type-id-940' size-in-bits='64' id='type-id-96'/>
    <qualified-type-def type-id='type-id-44' const='yes' id='type-id-941'/>
    <reference-type-def kind='lvalue' type-id='type-id-941' size-in-bits='64' id='type-id-942'/>
    <reference-type-def kind='rvalue' type-id='type-id-941' size-in-bits='64' id='type-id-943'/>
    <pointer-type-def type-id='type-id-941' size-in-bits='64' id='type-id-944'/>
    <qualified-type-def type-id='type-id-17' const='yes' id='type-id-945'/>
    <reference-type-def kind='lvalue' type-id='type-id-945' size-in-bits='64' id='type-id-946'/>
    <reference-type-def kind='rvalue' type-id='type-id-945' size-in-bits='64' id='type-id-947'/>
    <qualified-type-def type-id='type-id-4' const='yes' id='type-id-948'/>
    <reference-type-def kind='lvalue' type-id='type-id-948' size-in-bits='64' id='type-id-949'/>
    <reference-type-def kind='rvalue' type-id='type-id-948' size-in-bits='64' id='type-id-950'/>
    <qualified-type-def type-id='type-id-46' const='yes' id='type-id-951'/>
    <reference-type-def kind='lvalue' type-id='type-id-951' size-in-bits='64' id='type-id-952'/>
    <reference-type-def kind='rvalue' type-id='type-id-951' size-in-bits='64' id='type-id-953'/>
    <qualified-type-def type-id='type-id-49' const='yes' id='type-id-954'/>
    <pointer-type-def type-id='type-id-954' size-in-bits='64' id='type-id-955'/>
    <pointer-type-def type-id='type-id-955' size-in-bits='64' id='type-id-956'/>
    <reference-type-def kind='lvalue' type-id='type-id-19' size-in-bits='64' id='type-id-957'/>
    <reference-type-def kind='rvalue' type-id='type-id-19' size-in-bits='64' id='type-id-958'/>
    <pointer-type-def type-id='type-id-959' size-in-bits='64' id='type-id-960'/>
    <qualified-type-def type-id='type-id-960' const='yes' id='type-id-961'/>
    <reference-type-def kind='lvalue' type-id='type-id-961' size-in-bits='64' id='type-id-962'/>
    <reference-type-def kind='lvalue' type-id='type-id-20' size-in-bits='64' id='type-id-963'/>
    <reference-type-def kind='rvalue' type-id='type-id-20' size-in-bits='64' id='type-id-964'/>
    <pointer-type-def type-id='type-id-156' size-in-bits='64' id='type-id-965'/>
    <pointer-type-def type-id='type-id-966' size-in-bits='64' id='type-id-109'/>
    <pointer-type-def type-id='type-id-967' size-in-bits='64' id='type-id-108'/>
    <pointer-type-def type-id='type-id-968' size-in-bits='64' id='type-id-73'/>
    <pointer-type-def type-id='type-id-969' size-in-bits='64' id='type-id-163'/>
    <reference-type-def kind='lvalue' type-id='type-id-21' size-in-bits='64' id='type-id-970'/>
    <reference-type-def kind='rvalue' type-id='type-id-21' size-in-bits='64' id='type-id-971'/>
    <pointer-type-def type-id='type-id-153' size-in-bits='64' id='type-id-972'/>
    <reference-type-def kind='lvalue' type-id='type-id-23' size-in-bits='64' id='type-id-973'/>
    <reference-type-def kind='rvalue' type-id='type-id-23' size-in-bits='64' id='type-id-974'/>
    <pointer-type-def type-id='type-id-184' size-in-bits='64' id='type-id-975'/>
    <reference-type-def kind='lvalue' type-id='type-id-26' size-in-bits='64' id='type-id-976'/>
    <reference-type-def kind='rvalue' type-id='type-id-26' size-in-bits='64' id='type-id-977'/>
    <reference-type-def kind='lvalue' type-id='type-id-27' size-in-bits='64' id='type-id-978'/>
    <reference-type-def kind='rvalue' type-id='type-id-27' size-in-bits='64' id='type-id-979'/>
    <reference-type-def kind='lvalue' type-id='type-id-474' size-in-bits='64' id='type-id-980'/>
    <reference-type-def kind='rvalue' type-id='type-id-474' size-in-bits='64' id='type-id-981'/>
    <pointer-type-def type-id='type-id-474' size-in-bits='64' id='type-id-982'/>
    <qualified-type-def type-id='type-id-982' const='yes' id='type-id-983'/>
    <reference-type-def kind='lvalue' type-id='type-id-477' size-in-bits='64' id='type-id-984'/>
    <reference-type-def kind='rvalue' type-id='type-id-477' size-in-bits='64' id='type-id-985'/>
    <pointer-type-def type-id='type-id-477' size-in-bits='64' id='type-id-986'/>
    <reference-type-def kind='lvalue' type-id='type-id-480' size-in-bits='64' id='type-id-987'/>
    <reference-type-def kind='rvalue' type-id='type-id-480' size-in-bits='64' id='type-id-988'/>
    <pointer-type-def type-id='type-id-480' size-in-bits='64' id='type-id-989'/>
    <qualified-type-def type-id='type-id-989' const='yes' id='type-id-990'/>
    <reference-type-def kind='lvalue' type-id='type-id-483' size-in-bits='64' id='type-id-991'/>
    <reference-type-def kind='rvalue' type-id='type-id-483' size-in-bits='64' id='type-id-992'/>
    <pointer-type-def type-id='type-id-483' size-in-bits='64' id='type-id-993'/>
    <reference-type-def kind='lvalue' type-id='type-id-486' size-in-bits='64' id='type-id-994'/>
    <reference-type-def kind='rvalue' type-id='type-id-486' size-in-bits='64' id='type-id-995'/>
    <pointer-type-def type-id='type-id-486' size-in-bits='64' id='type-id-996'/>
    <qualified-type-def type-id='type-id-996' const='yes' id='type-id-997'/>
    <reference-type-def kind='lvalue' type-id='type-id-489' size-in-bits='64' id='type-id-998'/>
    <reference-type-def kind='rvalue' type-id='type-id-489' size-in-bits='64' id='type-id-999'/>
    <pointer-type-def type-id='type-id-489' size-in-bits='64' id='type-id-1000'/>
    <qualified-type-def type-id='type-id-1000' const='yes' id='type-id-1001'/>
    <pointer-type-def type-id='type-id-1002' size-in-bits='64' id='type-id-1003'/>
    <reference-type-def kind='rvalue' type-id='type-id-492' size-in-bits='64' id='type-id-1004'/>
    <pointer-type-def type-id='type-id-492' size-in-bits='64' id='type-id-1005'/>
    <qualified-type-def type-id='type-id-1005' const='yes' id='type-id-1006'/>
    <reference-type-def kind='lvalue' type-id='type-id-496' size-in-bits='64' id='type-id-1007'/>
    <reference-type-def kind='rvalue' type-id='type-id-496' size-in-bits='64' id='type-id-1008'/>
    <reference-type-def kind='rvalue' type-id='type-id-1009' size-in-bits='64' id='type-id-1010'/>
    <pointer-type-def type-id='type-id-1009' size-in-bits='64' id='type-id-1011'/>
    <qualified-type-def type-id='type-id-1011' const='yes' id='type-id-1012'/>
    <reference-type-def kind='lvalue' type-id='type-id-499' size-in-bits='64' id='type-id-1013'/>
    <reference-type-def kind='rvalue' type-id='type-id-499' size-in-bits='64' id='type-id-1014'/>
    <pointer-type-def type-id='type-id-499' size-in-bits='64' id='type-id-1015'/>
    <qualified-type-def type-id='type-id-1015' const='yes' id='type-id-1016'/>
    <reference-type-def kind='lvalue' type-id='type-id-505' size-in-bits='64' id='type-id-1017'/>
    <reference-type-def kind='rvalue' type-id='type-id-505' size-in-bits='64' id='type-id-1018'/>
    <pointer-type-def type-id='type-id-505' size-in-bits='64' id='type-id-1019'/>
    <qualified-type-def type-id='type-id-1019' const='yes' id='type-id-1020'/>
    <pointer-type-def type-id='type-id-1021' size-in-bits='64' id='type-id-1022'/>
    <qualified-type-def type-id='type-id-1022' const='yes' id='type-id-1023'/>
    <pointer-type-def type-id='type-id-1024' size-in-bits='64' id='type-id-1025'/>
    <qualified-type-def type-id='type-id-1025' const='yes' id='type-id-1026'/>
    <reference-type-def kind='lvalue' type-id='type-id-511' size-in-bits='64' id='type-id-1027'/>
    <reference-type-def kind='lvalue' type-id='type-id-514' size-in-bits='64' id='type-id-1028'/>
    <pointer-type-def type-id='type-id-516' size-in-bits='64' id='type-id-1029'/>
    <qualified-type-def type-id='type-id-1029' const='yes' id='type-id-1030'/>
    <reference-type-def kind='lvalue' type-id='type-id-520' size-in-bits='64' id='type-id-1031'/>
    <reference-type-def kind='rvalue' type-id='type-id-520' size-in-bits='64' id='type-id-1032'/>
    <pointer-type-def type-id='type-id-520' size-in-bits='64' id='type-id-1033'/>
    <reference-type-def kind='lvalue' type-id='type-id-523' size-in-bits='64' id='type-id-1034'/>
    <reference-type-def kind='rvalue' type-id='type-id-523' size-in-bits='64' id='type-id-1035'/>
    <pointer-type-def type-id='type-id-523' size-in-bits='64' id='type-id-1036'/>
    <reference-type-def kind='lvalue' type-id='type-id-526' size-in-bits='64' id='type-id-1037'/>
    <reference-type-def kind='rvalue' type-id='type-id-526' size-in-bits='64' id='type-id-1038'/>
    <pointer-type-def type-id='type-id-526' size-in-bits='64' id='type-id-1039'/>
    <reference-type-def kind='lvalue' type-id='type-id-529' size-in-bits='64' id='type-id-1040'/>
    <reference-type-def kind='rvalue' type-id='type-id-529' size-in-bits='64' id='type-id-1041'/>
    <pointer-type-def type-id='type-id-529' size-in-bits='64' id='type-id-1042'/>
    <reference-type-def kind='lvalue' type-id='type-id-532' size-in-bits='64' id='type-id-1043'/>
    <reference-type-def kind='rvalue' type-id='type-id-532' size-in-bits='64' id='type-id-1044'/>
    <pointer-type-def type-id='type-id-532' size-in-bits='64' id='type-id-1045'/>
    <reference-type-def kind='lvalue' type-id='type-id-535' size-in-bits='64' id='type-id-1046'/>
    <reference-type-def kind='rvalue' type-id='type-id-535' size-in-bits='64' id='type-id-1047'/>
    <pointer-type-def type-id='type-id-535' size-in-bits='64' id='type-id-1048'/>
    <reference-type-def kind='lvalue' type-id='type-id-538' size-in-bits='64' id='type-id-1049'/>
    <reference-type-def kind='rvalue' type-id='type-id-538' size-in-bits='64' id='type-id-1050'/>
    <pointer-type-def type-id='type-id-538' size-in-bits='64' id='type-id-1051'/>
    <reference-type-def kind='lvalue' type-id='type-id-541' size-in-bits='64' id='type-id-1052'/>
    <reference-type-def kind='rvalue' type-id='type-id-541' size-in-bits='64' id='type-id-1053'/>
    <pointer-type-def type-id='type-id-541' size-in-bits='64' id='type-id-1054'/>
    <reference-type-def kind='lvalue' type-id='type-id-544' size-in-bits='64' id='type-id-1055'/>
    <reference-type-def kind='rvalue' type-id='type-id-544' size-in-bits='64' id='type-id-1056'/>
    <pointer-type-def type-id='type-id-544' size-in-bits='64' id='type-id-1057'/>
    <reference-type-def kind='lvalue' type-id='type-id-547' size-in-bits='64' id='type-id-1058'/>
    <reference-type-def kind='rvalue' type-id='type-id-547' size-in-bits='64' id='type-id-1059'/>
    <pointer-type-def type-id='type-id-547' size-in-bits='64' id='type-id-1060'/>
    <reference-type-def kind='lvalue' type-id='type-id-550' size-in-bits='64' id='type-id-1061'/>
    <reference-type-def kind='rvalue' type-id='type-id-550' size-in-bits='64' id='type-id-1062'/>
    <pointer-type-def type-id='type-id-550' size-in-bits='64' id='type-id-1063'/>
    <reference-type-def kind='lvalue' type-id='type-id-553' size-in-bits='64' id='type-id-1064'/>
    <reference-type-def kind='rvalue' type-id='type-id-553' size-in-bits='64' id='type-id-1065'/>
    <pointer-type-def type-id='type-id-553' size-in-bits='64' id='type-id-1066'/>
    <reference-type-def kind='lvalue' type-id='type-id-556' size-in-bits='64' id='type-id-1067'/>
    <reference-type-def kind='rvalue' type-id='type-id-556' size-in-bits='64' id='type-id-1068'/>
    <pointer-type-def type-id='type-id-556' size-in-bits='64' id='type-id-1069'/>
    <reference-type-def kind='lvalue' type-id='type-id-559' size-in-bits='64' id='type-id-1070'/>
    <reference-type-def kind='rvalue' type-id='type-id-559' size-in-bits='64' id='type-id-1071'/>
    <pointer-type-def type-id='type-id-559' size-in-bits='64' id='type-id-1072'/>
    <reference-type-def kind='lvalue' type-id='type-id-562' size-in-bits='64' id='type-id-1073'/>
    <reference-type-def kind='rvalue' type-id='type-id-562' size-in-bits='64' id='type-id-1074'/>
    <pointer-type-def type-id='type-id-562' size-in-bits='64' id='type-id-1075'/>
    <reference-type-def kind='lvalue' type-id='type-id-565' size-in-bits='64' id='type-id-1076'/>
    <reference-type-def kind='rvalue' type-id='type-id-565' size-in-bits='64' id='type-id-1077'/>
    <pointer-type-def type-id='type-id-565' size-in-bits='64' id='type-id-1078'/>
    <reference-type-def kind='lvalue' type-id='type-id-568' size-in-bits='64' id='type-id-1079'/>
    <reference-type-def kind='rvalue' type-id='type-id-568' size-in-bits='64' id='type-id-1080'/>
    <pointer-type-def type-id='type-id-568' size-in-bits='64' id='type-id-1081'/>
    <reference-type-def kind='lvalue' type-id='type-id-571' size-in-bits='64' id='type-id-1082'/>
    <reference-type-def kind='rvalue' type-id='type-id-571' size-in-bits='64' id='type-id-1083'/>
    <pointer-type-def type-id='type-id-571' size-in-bits='64' id='type-id-1084'/>
    <reference-type-def kind='lvalue' type-id='type-id-574' size-in-bits='64' id='type-id-1085'/>
    <reference-type-def kind='rvalue' type-id='type-id-574' size-in-bits='64' id='type-id-1086'/>
    <pointer-type-def type-id='type-id-574' size-in-bits='64' id='type-id-1087'/>
    <reference-type-def kind='lvalue' type-id='type-id-577' size-in-bits='64' id='type-id-1088'/>
    <reference-type-def kind='rvalue' type-id='type-id-577' size-in-bits='64' id='type-id-1089'/>
    <pointer-type-def type-id='type-id-577' size-in-bits='64' id='type-id-1090'/>
    <pointer-type-def type-id='type-id-640' size-in-bits='64' id='type-id-1091'/>
    <qualified-type-def type-id='type-id-1091' const='yes' id='type-id-1092'/>
    <pointer-type-def type-id='type-id-643' size-in-bits='64' id='type-id-1093'/>
    <pointer-type-def type-id='type-id-647' size-in-bits='64' id='type-id-1094'/>
    <qualified-type-def type-id='type-id-1094' const='yes' id='type-id-1095'/>
    <pointer-type-def type-id='type-id-650' size-in-bits='64' id='type-id-1096'/>
    <pointer-type-def type-id='type-id-654' size-in-bits='64' id='type-id-1097'/>
    <pointer-type-def type-id='type-id-657' size-in-bits='64' id='type-id-1098'/>
    <qualified-type-def type-id='type-id-1098' const='yes' id='type-id-1099'/>
    <pointer-type-def type-id='type-id-660' size-in-bits='64' id='type-id-1100'/>
    <qualified-type-def type-id='type-id-1100' const='yes' id='type-id-1101'/>
    <pointer-type-def type-id='type-id-663' size-in-bits='64' id='type-id-1102'/>
    <pointer-type-def type-id='type-id-667' size-in-bits='64' id='type-id-1103'/>
    <pointer-type-def type-id='type-id-671' size-in-bits='64' id='type-id-1104'/>
    <pointer-type-def type-id='type-id-675' size-in-bits='64' id='type-id-1105'/>
    <pointer-type-def type-id='type-id-679' size-in-bits='64' id='type-id-1106'/>
    <pointer-type-def type-id='type-id-683' size-in-bits='64' id='type-id-1107'/>
    <pointer-type-def type-id='type-id-687' size-in-bits='64' id='type-id-1108'/>
    <pointer-type-def type-id='type-id-691' size-in-bits='64' id='type-id-1109'/>
    <pointer-type-def type-id='type-id-695' size-in-bits='64' id='type-id-1110'/>
    <pointer-type-def type-id='type-id-699' size-in-bits='64' id='type-id-1111'/>
    <qualified-type-def type-id='type-id-1111' const='yes' id='type-id-1112'/>
    <pointer-type-def type-id='type-id-702' size-in-bits='64' id='type-id-1113'/>
    <pointer-type-def type-id='type-id-706' size-in-bits='64' id='type-id-1114'/>
    <pointer-type-def type-id='type-id-710' size-in-bits='64' id='type-id-1115'/>
    <reference-type-def kind='lvalue' type-id='type-id-1116' size-in-bits='64' id='type-id-1117'/>
    <pointer-type-def type-id='type-id-1116' size-in-bits='64' id='type-id-1118'/>
    <qualified-type-def type-id='type-id-1118' const='yes' id='type-id-1119'/>
    <pointer-type-def type-id='type-id-714' size-in-bits='64' id='type-id-1120'/>
    <reference-type-def kind='lvalue' type-id='type-id-1121' size-in-bits='64' id='type-id-1122'/>
    <pointer-type-def type-id='type-id-1121' size-in-bits='64' id='type-id-1123'/>
    <qualified-type-def type-id='type-id-1123' const='yes' id='type-id-1124'/>
    <pointer-type-def type-id='type-id-717' size-in-bits='64' id='type-id-1125'/>
    <pointer-type-def type-id='type-id-1126' size-in-bits='64' id='type-id-1127'/>
    <reference-type-def kind='lvalue' type-id='type-id-1128' size-in-bits='64' id='type-id-1129'/>
    <pointer-type-def type-id='type-id-1128' size-in-bits='64' id='type-id-1130'/>
    <qualified-type-def type-id='type-id-1130' const='yes' id='type-id-1131'/>
    <reference-type-def kind='lvalue' type-id='type-id-1132' size-in-bits='64' id='type-id-1133'/>
    <pointer-type-def type-id='type-id-1132' size-in-bits='64' id='type-id-1134'/>
    <qualified-type-def type-id='type-id-1134' const='yes' id='type-id-1135'/>
    <pointer-type-def type-id='type-id-720' size-in-bits='64' id='type-id-1136'/>
    <pointer-type-def type-id='type-id-723' size-in-bits='64' id='type-id-1137'/>
    <pointer-type-def type-id='type-id-726' size-in-bits='64' id='type-id-1138'/>
    <pointer-type-def type-id='type-id-729' size-in-bits='64' id='type-id-1139'/>
    <pointer-type-def type-id='type-id-732' size-in-bits='64' id='type-id-1140'/>
    <pointer-type-def type-id='type-id-735' size-in-bits='64' id='type-id-1141'/>
    <pointer-type-def type-id='type-id-738' size-in-bits='64' id='type-id-1142'/>
    <pointer-type-def type-id='type-id-741' size-in-bits='64' id='type-id-1143'/>
    <pointer-type-def type-id='type-id-744' size-in-bits='64' id='type-id-1144'/>
    <reference-type-def kind='lvalue' type-id='type-id-1145' size-in-bits='64' id='type-id-1146'/>
    <pointer-type-def type-id='type-id-1145' size-in-bits='64' id='type-id-1147'/>
    <qualified-type-def type-id='type-id-1147' const='yes' id='type-id-1148'/>
    <pointer-type-def type-id='type-id-747' size-in-bits='64' id='type-id-1149'/>
    <pointer-type-def type-id='type-id-750' size-in-bits='64' id='type-id-1150'/>
    <pointer-type-def type-id='type-id-753' size-in-bits='64' id='type-id-1151'/>
    <reference-type-def kind='lvalue' type-id='type-id-756' size-in-bits='64' id='type-id-1152'/>
    <reference-type-def kind='rvalue' type-id='type-id-756' size-in-bits='64' id='type-id-1153'/>
    <pointer-type-def type-id='type-id-756' size-in-bits='64' id='type-id-1154'/>
    <qualified-type-def type-id='type-id-1154' const='yes' id='type-id-1155'/>
    <reference-type-def kind='lvalue' type-id='type-id-759' size-in-bits='64' id='type-id-1156'/>
    <reference-type-def kind='rvalue' type-id='type-id-759' size-in-bits='64' id='type-id-1157'/>
    <pointer-type-def type-id='type-id-759' size-in-bits='64' id='type-id-1158'/>
    <reference-type-def kind='lvalue' type-id='type-id-762' size-in-bits='64' id='type-id-1159'/>
    <reference-type-def kind='rvalue' type-id='type-id-762' size-in-bits='64' id='type-id-1160'/>
    <pointer-type-def type-id='type-id-762' size-in-bits='64' id='type-id-1161'/>
    <qualified-type-def type-id='type-id-1161' const='yes' id='type-id-1162'/>
    <reference-type-def kind='lvalue' type-id='type-id-765' size-in-bits='64' id='type-id-1163'/>
    <reference-type-def kind='rvalue' type-id='type-id-765' size-in-bits='64' id='type-id-1164'/>
    <pointer-type-def type-id='type-id-765' size-in-bits='64' id='type-id-1165'/>
    <reference-type-def kind='lvalue' type-id='type-id-768' size-in-bits='64' id='type-id-1166'/>
    <reference-type-def kind='rvalue' type-id='type-id-768' size-in-bits='64' id='type-id-1167'/>
    <pointer-type-def type-id='type-id-768' size-in-bits='64' id='type-id-1168'/>
    <qualified-type-def type-id='type-id-1168' const='yes' id='type-id-1169'/>
    <reference-type-def kind='lvalue' type-id='type-id-771' size-in-bits='64' id='type-id-1170'/>
    <reference-type-def kind='rvalue' type-id='type-id-771' size-in-bits='64' id='type-id-1171'/>
    <pointer-type-def type-id='type-id-771' size-in-bits='64' id='type-id-1172'/>
    <qualified-type-def type-id='type-id-1172' const='yes' id='type-id-1173'/>
    <reference-type-def kind='lvalue' type-id='type-id-774' size-in-bits='64' id='type-id-1174'/>
    <pointer-type-def type-id='type-id-774' size-in-bits='64' id='type-id-1175'/>
    <qualified-type-def type-id='type-id-1175' const='yes' id='type-id-1176'/>
    <reference-type-def kind='lvalue' type-id='type-id-778' size-in-bits='64' id='type-id-1177'/>
    <pointer-type-def type-id='type-id-778' size-in-bits='64' id='type-id-1178'/>
    <qualified-type-def type-id='type-id-1178' const='yes' id='type-id-1179'/>
    <pointer-type-def type-id='type-id-782' size-in-bits='64' id='type-id-1180'/>
    <reference-type-def kind='lvalue' type-id='type-id-785' size-in-bits='64' id='type-id-1181'/>
    <pointer-type-def type-id='type-id-785' size-in-bits='64' id='type-id-1182'/>
    <qualified-type-def type-id='type-id-1182' const='yes' id='type-id-1183'/>
    <reference-type-def kind='lvalue' type-id='type-id-789' size-in-bits='64' id='type-id-1184'/>
    <pointer-type-def type-id='type-id-789' size-in-bits='64' id='type-id-1185'/>
    <qualified-type-def type-id='type-id-1185' const='yes' id='type-id-1186'/>
    <pointer-type-def type-id='type-id-793' size-in-bits='64' id='type-id-1187'/>
    <reference-type-def kind='lvalue' type-id='type-id-809' size-in-bits='64' id='type-id-1188'/>
    <reference-type-def kind='rvalue' type-id='type-id-809' size-in-bits='64' id='type-id-1189'/>
    <pointer-type-def type-id='type-id-809' size-in-bits='64' id='type-id-1190'/>
    <reference-type-def kind='lvalue' type-id='type-id-1191' size-in-bits='64' id='type-id-1192'/>
    <reference-type-def kind='lvalue' type-id='type-id-813' size-in-bits='64' id='type-id-1193'/>
    <pointer-type-def type-id='type-id-813' size-in-bits='64' id='type-id-1194'/>
    <qualified-type-def type-id='type-id-1194' const='yes' id='type-id-1195'/>
    <reference-type-def kind='lvalue' type-id='type-id-816' size-in-bits='64' id='type-id-1196'/>
    <reference-type-def kind='rvalue' type-id='type-id-816' size-in-bits='64' id='type-id-1197'/>
    <pointer-type-def type-id='type-id-816' size-in-bits='64' id='type-id-1198'/>
    <qualified-type-def type-id='type-id-1198' const='yes' id='type-id-1199'/>
    <reference-type-def kind='lvalue' type-id='type-id-819' size-in-bits='64' id='type-id-1200'/>
    <reference-type-def kind='lvalue' type-id='type-id-822' size-in-bits='64' id='type-id-1201'/>
    <pointer-type-def type-id='type-id-825' size-in-bits='64' id='type-id-1202'/>
    <qualified-type-def type-id='type-id-1202' const='yes' id='type-id-1203'/>
    <reference-type-def kind='lvalue' type-id='type-id-828' size-in-bits='64' id='type-id-1204'/>
    <reference-type-def kind='rvalue' type-id='type-id-828' size-in-bits='64' id='type-id-1205'/>
    <pointer-type-def type-id='type-id-828' size-in-bits='64' id='type-id-1206'/>
    <qualified-type-def type-id='type-id-1206' const='yes' id='type-id-1207'/>
    <reference-type-def kind='lvalue' type-id='type-id-838' size-in-bits='64' id='type-id-1208'/>
    <pointer-type-def type-id='type-id-838' size-in-bits='64' id='type-id-1209'/>
    <pointer-type-def type-id='type-id-845' size-in-bits='64' id='type-id-1210'/>
    <pointer-type-def type-id='type-id-1211' size-in-bits='64' id='type-id-1212'/>
    <pointer-type-def type-id='type-id-1213' size-in-bits='64' id='type-id-1214'/>
    <pointer-type-def type-id='type-id-1215' size-in-bits='64' id='type-id-1216'/>
    <pointer-type-def type-id='type-id-1217' size-in-bits='64' id='type-id-1218'/>
    <pointer-type-def type-id='type-id-1219' size-in-bits='64' id='type-id-1220'/>
    <pointer-type-def type-id='type-id-1221' size-in-bits='64' id='type-id-1222'/>
    <pointer-type-def type-id='type-id-1223' size-in-bits='64' id='type-id-1224'/>
    <pointer-type-def type-id='type-id-1225' size-in-bits='64' id='type-id-1226'/>
    <pointer-type-def type-id='type-id-1227' size-in-bits='64' id='type-id-1228'/>
    <pointer-type-def type-id='type-id-1229' size-in-bits='64' id='type-id-1230'/>
    <pointer-type-def type-id='type-id-1231' size-in-bits='64' id='type-id-1232'/>
    <pointer-type-def type-id='type-id-1233' size-in-bits='64' id='type-id-1234'/>
    <pointer-type-def type-id='type-id-1235' size-in-bits='64' id='type-id-1236'/>
    <pointer-type-def type-id='type-id-1237' size-in-bits='64' id='type-id-1238'/>
    <pointer-type-def type-id='type-id-848' size-in-bits='64' id='type-id-1239'/>
    <pointer-type-def type-id='type-id-851' size-in-bits='64' id='type-id-1240'/>
    <pointer-type-def type-id='type-id-855' size-in-bits='64' id='type-id-1241'/>
    <pointer-type-def type-id='type-id-858' size-in-bits='64' id='type-id-1242'/>
    <reference-type-def kind='lvalue' type-id='type-id-1243' size-in-bits='64' id='type-id-1244'/>
    <reference-type-def kind='rvalue' type-id='type-id-1243' size-in-bits='64' id='type-id-1245'/>
    <reference-type-def kind='lvalue' type-id='type-id-1246' size-in-bits='64' id='type-id-1247'/>
    <reference-type-def kind='rvalue' type-id='type-id-1248' size-in-bits='64' id='type-id-1249'/>
    <reference-type-def kind='rvalue' type-id='type-id-1250' size-in-bits='64' id='type-id-1251'/>
    <reference-type-def kind='rvalue' type-id='type-id-1252' size-in-bits='64' id='type-id-1253'/>
    <reference-type-def kind='rvalue' type-id='type-id-1254' size-in-bits='64' id='type-id-1255'/>
    <reference-type-def kind='lvalue' type-id='type-id-1256' size-in-bits='64' id='type-id-1257'/>
    <reference-type-def kind='rvalue' type-id='type-id-1256' size-in-bits='64' id='type-id-1258'/>
    <reference-type-def kind='lvalue' type-id='type-id-1259' size-in-bits='64' id='type-id-1260'/>
    <reference-type-def kind='lvalue' type-id='type-id-1261' size-in-bits='64' id='type-id-1262'/>
    <reference-type-def kind='lvalue' type-id='type-id-1263' size-in-bits='64' id='type-id-1264'/>
    <reference-type-def kind='lvalue' type-id='type-id-1265' size-in-bits='64' id='type-id-1266'/>
    <reference-type-def kind='lvalue' type-id='type-id-1267' size-in-bits='64' id='type-id-1268'/>
    <reference-type-def kind='rvalue' type-id='type-id-1269' size-in-bits='64' id='type-id-1270'/>
    <reference-type-def kind='lvalue' type-id='type-id-1271' size-in-bits='64' id='type-id-1272'/>
    <reference-type-def kind='lvalue' type-id='type-id-1273' size-in-bits='64' id='type-id-1274'/>
    <reference-type-def kind='rvalue' type-id='type-id-1273' size-in-bits='64' id='type-id-1275'/>
    <reference-type-def kind='lvalue' type-id='type-id-1276' size-in-bits='64' id='type-id-1277'/>
    <reference-type-def kind='lvalue' type-id='type-id-1278' size-in-bits='64' id='type-id-1279'/>
    <reference-type-def kind='rvalue' type-id='type-id-1278' size-in-bits='64' id='type-id-1280'/>
    <reference-type-def kind='lvalue' type-id='type-id-1281' size-in-bits='64' id='type-id-1282'/>
    <reference-type-def kind='lvalue' type-id='type-id-1283' size-in-bits='64' id='type-id-1284'/>
    <reference-type-def kind='lvalue' type-id='type-id-1285' size-in-bits='64' id='type-id-1286'/>
    <reference-type-def kind='lvalue' type-id='type-id-1287' size-in-bits='64' id='type-id-1288'/>
    <reference-type-def kind='lvalue' type-id='type-id-1289' size-in-bits='64' id='type-id-1290'/>
    <reference-type-def kind='lvalue' type-id='type-id-1291' size-in-bits='64' id='type-id-1292'/>
    <reference-type-def kind='lvalue' type-id='type-id-1293' size-in-bits='64' id='type-id-1294'/>
    <reference-type-def kind='lvalue' type-id='type-id-1295' size-in-bits='64' id='type-id-1296'/>
    <reference-type-def kind='lvalue' type-id='type-id-1297' size-in-bits='64' id='type-id-1298'/>
    <reference-type-def kind='lvalue' type-id='type-id-1299' size-in-bits='64' id='type-id-1300'/>
    <reference-type-def kind='lvalue' type-id='type-id-1301' size-in-bits='64' id='type-id-1302'/>
    <reference-type-def kind='lvalue' type-id='type-id-1303' size-in-bits='64' id='type-id-1304'/>
    <reference-type-def kind='lvalue' type-id='type-id-1305' size-in-bits='64' id='type-id-1306'/>
    <reference-type-def kind='lvalue' type-id='type-id-1307' size-in-bits='64' id='type-id-1308'/>
    <reference-type-def kind='lvalue' type-id='type-id-1309' size-in-bits='64' id='type-id-1310'/>
    <reference-type-def kind='lvalue' type-id='type-id-1311' size-in-bits='64' id='type-id-1312'/>
    <reference-type-def kind='lvalue' type-id='type-id-1313' size-in-bits='64' id='type-id-1314'/>
    <reference-type-def kind='lvalue' type-id='type-id-1315' size-in-bits='64' id='type-id-1316'/>
    <reference-type-def kind='lvalue' type-id='type-id-1317' size-in-bits='64' id='type-id-1318'/>
    <reference-type-def kind='lvalue' type-id='type-id-1319' size-in-bits='64' id='type-id-1320'/>
    <reference-type-def kind='lvalue' type-id='type-id-1321' size-in-bits='64' id='type-id-1322'/>
    <reference-type-def kind='lvalue' type-id='type-id-1323' size-in-bits='64' id='type-id-1324'/>
    <reference-type-def kind='lvalue' type-id='type-id-1325' size-in-bits='64' id='type-id-1326'/>
    <reference-type-def kind='lvalue' type-id='type-id-1327' size-in-bits='64' id='type-id-1328'/>
    <reference-type-def kind='lvalue' type-id='type-id-1329' size-in-bits='64' id='type-id-1330'/>
    <reference-type-def kind='lvalue' type-id='type-id-1331' size-in-bits='64' id='type-id-1332'/>
    <reference-type-def kind='lvalue' type-id='type-id-1333' size-in-bits='64' id='type-id-1334'/>
    <reference-type-def kind='lvalue' type-id='type-id-1335' size-in-bits='64' id='type-id-1336'/>
    <reference-type-def kind='lvalue' type-id='type-id-1337' size-in-bits='64' id='type-id-1338'/>
    <reference-type-def kind='lvalue' type-id='type-id-1339' size-in-bits='64' id='type-id-1340'/>
    <reference-type-def kind='rvalue' type-id='type-id-1339' size-in-bits='64' id='type-id-1341'/>
    <reference-type-def kind='lvalue' type-id='type-id-1342' size-in-bits='64' id='type-id-1343'/>
    <reference-type-def kind='lvalue' type-id='type-id-1344' size-in-bits='64' id='type-id-1345'/>
    <reference-type-def kind='lvalue' type-id='type-id-1346' size-in-bits='64' id='type-id-1347'/>
    <reference-type-def kind='lvalue' type-id='type-id-1348' size-in-bits='64' id='type-id-1349'/>
    <reference-type-def kind='lvalue' type-id='type-id-1350' size-in-bits='64' id='type-id-1351'/>
    <reference-type-def kind='rvalue' type-id='type-id-1352' size-in-bits='64' id='type-id-1353'/>
    <reference-type-def kind='lvalue' type-id='type-id-1354' size-in-bits='64' id='type-id-1355'/>
    <reference-type-def kind='lvalue' type-id='type-id-1356' size-in-bits='64' id='type-id-1357'/>
    <reference-type-def kind='lvalue' type-id='type-id-1358' size-in-bits='64' id='type-id-1359'/>
    <reference-type-def kind='lvalue' type-id='type-id-1360' size-in-bits='64' id='type-id-1361'/>
    <reference-type-def kind='lvalue' type-id='type-id-1362' size-in-bits='64' id='type-id-1363'/>
    <reference-type-def kind='lvalue' type-id='type-id-1364' size-in-bits='64' id='type-id-1365'/>
    <pointer-type-def type-id='type-id-1366' size-in-bits='64' id='type-id-1367'/>
    <qualified-type-def type-id='type-id-1367' const='yes' id='type-id-1368'/>
    <reference-type-def kind='lvalue' type-id='type-id-879' size-in-bits='64' id='type-id-1369'/>
    <pointer-type-def type-id='type-id-879' size-in-bits='64' id='type-id-1370'/>
    <qualified-type-def type-id='type-id-1370' const='yes' id='type-id-1371'/>
    <reference-type-def kind='lvalue' type-id='type-id-1372' size-in-bits='64' id='type-id-1373'/>
    <reference-type-def kind='lvalue' type-id='type-id-884' size-in-bits='64' id='type-id-1374'/>
    <pointer-type-def type-id='type-id-884' size-in-bits='64' id='type-id-1375'/>
    <qualified-type-def type-id='type-id-1375' const='yes' id='type-id-1376'/>
    <reference-type-def kind='lvalue' type-id='type-id-1377' size-in-bits='64' id='type-id-1378'/>
    <reference-type-def kind='lvalue' type-id='type-id-892' size-in-bits='64' id='type-id-1379'/>
    <reference-type-def kind='rvalue' type-id='type-id-892' size-in-bits='64' id='type-id-1380'/>
    <pointer-type-def type-id='type-id-892' size-in-bits='64' id='type-id-1381'/>
    <qualified-type-def type-id='type-id-1381' const='yes' id='type-id-1382'/>
    <reference-type-def kind='lvalue' type-id='type-id-897' size-in-bits='64' id='type-id-1383'/>
    <reference-type-def kind='rvalue' type-id='type-id-897' size-in-bits='64' id='type-id-1384'/>
    <pointer-type-def type-id='type-id-897' size-in-bits='64' id='type-id-1385'/>
    <reference-type-def kind='lvalue' type-id='type-id-902' size-in-bits='64' id='type-id-1386'/>
    <reference-type-def kind='rvalue' type-id='type-id-902' size-in-bits='64' id='type-id-1387'/>
    <pointer-type-def type-id='type-id-902' size-in-bits='64' id='type-id-1388'/>
    <qualified-type-def type-id='type-id-1388' const='yes' id='type-id-1389'/>
    <reference-type-def kind='lvalue' type-id='type-id-907' size-in-bits='64' id='type-id-1390'/>
    <reference-type-def kind='rvalue' type-id='type-id-907' size-in-bits='64' id='type-id-1391'/>
    <pointer-type-def type-id='type-id-907' size-in-bits='64' id='type-id-1392'/>
    <reference-type-def kind='lvalue' type-id='type-id-911' size-in-bits='64' id='type-id-1393'/>
    <reference-type-def kind='rvalue' type-id='type-id-911' size-in-bits='64' id='type-id-1394'/>
    <pointer-type-def type-id='type-id-911' size-in-bits='64' id='type-id-1395'/>
    <qualified-type-def type-id='type-id-1395' const='yes' id='type-id-1396'/>
    <reference-type-def kind='lvalue' type-id='type-id-916' size-in-bits='64' id='type-id-1397'/>
    <reference-type-def kind='rvalue' type-id='type-id-916' size-in-bits='64' id='type-id-1398'/>
    <pointer-type-def type-id='type-id-916' size-in-bits='64' id='type-id-1399'/>
    <qualified-type-def type-id='type-id-1399' const='yes' id='type-id-1400'/>
    <reference-type-def kind='lvalue' type-id='type-id-1401' size-in-bits='64' id='type-id-1402'/>
    <reference-type-def kind='lvalue' type-id='type-id-921' size-in-bits='64' id='type-id-1403'/>
    <reference-type-def kind='rvalue' type-id='type-id-921' size-in-bits='64' id='type-id-1404'/>
    <pointer-type-def type-id='type-id-921' size-in-bits='64' id='type-id-1405'/>
    <qualified-type-def type-id='type-id-1405' const='yes' id='type-id-1406'/>
    <reference-type-def kind='lvalue' type-id='type-id-926' size-in-bits='64' id='type-id-1407'/>
    <reference-type-def kind='rvalue' type-id='type-id-934' size-in-bits='64' id='type-id-1408'/>
    <pointer-type-def type-id='type-id-1409' size-in-bits='64' id='type-id-88'/>
    <pointer-type-def type-id='type-id-1410' size-in-bits='64' id='type-id-87'/>
    <pointer-type-def type-id='type-id-16' size-in-bits='64' id='type-id-1411'/>
    <pointer-type-def type-id='type-id-1412' size-in-bits='64' id='type-id-82'/>
    <reference-type-def kind='lvalue' type-id='type-id-44' size-in-bits='64' id='type-id-1413'/>
    <reference-type-def kind='rvalue' type-id='type-id-44' size-in-bits='64' id='type-id-1414'/>
    <reference-type-def kind='lvalue' type-id='type-id-17' size-in-bits='64' id='type-id-1415'/>
    <reference-type-def kind='rvalue' type-id='type-id-17' size-in-bits='64' id='type-id-1416'/>
    <reference-type-def kind='lvalue' type-id='type-id-4' size-in-bits='64' id='type-id-1417'/>
    <reference-type-def kind='rvalue' type-id='type-id-4' size-in-bits='64' id='type-id-1418'/>
    <reference-type-def kind='lvalue' type-id='type-id-46' size-in-bits='64' id='type-id-1419'/>
    <reference-type-def kind='rvalue' type-id='type-id-46' size-in-bits='64' id='type-id-1420'/>
    <pointer-type-def type-id='type-id-1421' size-in-bits='64' id='type-id-1422'/>
    <pointer-type-def type-id='type-id-1423' size-in-bits='64' id='type-id-106'/>
    <pointer-type-def type-id='type-id-1424' size-in-bits='64' id='type-id-111'/>
    <pointer-type-def type-id='type-id-1425' size-in-bits='64' id='type-id-101'/>
    <pointer-type-def type-id='type-id-1426' size-in-bits='64' id='type-id-1427'/>
    <qualified-type-def type-id='type-id-1427' const='yes' id='type-id-1428'/>
    <reference-type-def kind='lvalue' type-id='type-id-1428' size-in-bits='64' id='type-id-1429'/>
    <pointer-type-def type-id='type-id-1430' size-in-bits='64' id='type-id-1431'/>
    <qualified-type-def type-id='type-id-1431' const='yes' id='type-id-1432'/>
    <reference-type-def kind='lvalue' type-id='type-id-1432' size-in-bits='64' id='type-id-1433'/>
    <pointer-type-def type-id='type-id-1434' size-in-bits='64' id='type-id-1435'/>
    <qualified-type-def type-id='type-id-1435' const='yes' id='type-id-1436'/>
    <reference-type-def kind='lvalue' type-id='type-id-1436' size-in-bits='64' id='type-id-1437'/>
    <pointer-type-def type-id='type-id-1438' size-in-bits='64' id='type-id-1439'/>
    <qualified-type-def type-id='type-id-1439' const='yes' id='type-id-1440'/>
    <reference-type-def kind='lvalue' type-id='type-id-1440' size-in-bits='64' id='type-id-1441'/>
    <pointer-type-def type-id='type-id-1442' size-in-bits='64' id='type-id-1443'/>
    <qualified-type-def type-id='type-id-1443' const='yes' id='type-id-1444'/>
    <reference-type-def kind='lvalue' type-id='type-id-1444' size-in-bits='64' id='type-id-1445'/>
    <pointer-type-def type-id='type-id-1446' size-in-bits='64' id='type-id-67'/>
    <pointer-type-def type-id='type-id-1447' size-in-bits='64' id='type-id-64'/>
    <pointer-type-def type-id='type-id-1448' size-in-bits='64' id='type-id-69'/>
    <pointer-type-def type-id='type-id-1449' size-in-bits='64' id='type-id-70'/>
    <pointer-type-def type-id='type-id-48' size-in-bits='64' id='type-id-18'/>
    <pointer-type-def type-id='type-id-1450' size-in-bits='64' id='type-id-80'/>
    <pointer-type-def type-id='type-id-1451' size-in-bits='64' id='type-id-89'/>
    <pointer-type-def type-id='type-id-18' size-in-bits='64' id='type-id-103'/>
    <pointer-type-def type-id='type-id-49' size-in-bits='64' id='type-id-1452'/>
    <pointer-type-def type-id='type-id-1452' size-in-bits='64' id='type-id-1453'/>
    <class-decl name='PJ_dialog_vtable_t' is-struct='yes' visibility='default' is-declaration-only='yes' id='type-id-383'/>
    <class-decl name='_IO_codecvt' is-struct='yes' visibility='default' is-declaration-only='yes' id='type-id-263'/>
    <class-decl name='_IO_marker' is-struct='yes' visibility='default' is-declaration-only='yes' id='type-id-264'/>
    <class-decl name='_IO_wide_data' is-struct='yes' visibility='default' is-declaration-only='yes' id='type-id-265'/>
    <namespace-decl name='PJ'>
      <class-decl name='Unexpected&lt;std::__cxx11::basic_string&lt;char, std::char_traits&lt;char&gt;, std::allocator&lt;char&gt; &gt; &gt;' size-in-bits='256' visibility='default' id='type-id-226'>
        <data-member access='private' layout-offset-in-bits='0'>
          <var-decl name='error_' type-id='type-id-505' visibility='default'/>
        </data-member>
        <member-function access='public'>
          <function-decl name='value' mangled-name='_ZNO2PJ10UnexpectedINSt7__cxx1112basic_stringIcSt11char_traitsIcESaIcEEEE5valueEv' visibility='default' binding='global' size-in-bits='64' elf-symbol-id='_ZNO2PJ10UnexpectedINSt7__cxx1112basic_stringIcSt11char_traitsIcESaIcEEEE5valueEv'>
            <parameter type-id='type-id-230' name='this' is-artificial='yes'/>
            <return type-id='type-id-1018'/>
          </function-decl>
        </member-function>
        <member-function access='public'>
          <function-decl name='Unexpected' mangled-name='_ZN2PJ10UnexpectedINSt7__cxx1112basic_stringIcSt11char_traitsIcESaIcEEEEC2ES6_' visibility='default' binding='global' size-in-bits='64' elf-symbol-id='_ZN2PJ10UnexpectedINSt7__cxx1112basic_stringIcSt11char_traitsIcESaIcEEEEC2ES6_'>
            <parameter type-id='type-id-230' name='this' is-artificial='yes'/>
            <parameter type-id='type-id-505' name='error'/>
            <return type-id='type-id-48'/>
          </function-decl>
        </member-function>
      </class-decl>
      <class-decl name='Expected&lt;PJ::DataSourceRuntimeHostView, std::__cxx11::basic_string&lt;char, std::char_traits&lt;char&gt;, std::allocator&lt;char&gt; &gt; &gt;' size-in-bits='320' visibility='default' id='type-id-203'>
        <data-member access='private' layout-offset-in-bits='0'>
          <var-decl name='storage_' type-id='type-id-892' visibility='default'/>
        </data-member>
        <member-function access='public'>
          <function-decl name='value' mangled-name='_ZNR2PJ8ExpectedINS_25DataSourceRuntimeHostViewENSt7__cxx1112basic_stringIcSt11char_traitsIcESaIcEEEE5valueEv' visibility='default' binding='global' size-in-bits='64' elf-symbol-id='_ZNR2PJ8ExpectedINS_25DataSourceRuntimeHostViewENSt7__cxx1112basic_stringIcSt11char_traitsIcESaIcEEEE5valueEv'>
            <parameter type-id='type-id-206' name='this' is-artificial='yes'/>
            <return type-id='type-id-199'/>
          </function-decl>
        </member-function>
        <member-function access='public'>
          <function-decl name='Expected' mangled-name='_ZN2PJ8ExpectedINS_25DataSourceRuntimeHostViewENSt7__cxx1112basic_stringIcSt11char_traitsIcESaIcEEEEC2EOS1_' visibility='default' binding='global' size-in-bits='64' elf-symbol-id='_ZN2PJ8ExpectedINS_25DataSourceRuntimeHostViewENSt7__cxx1112basic_stringIcSt11char_traitsIcESaIcEEEEC2EOS1_'>
            <parameter type-id='type-id-206' name='this' is-artificial='yes'/>
            <parameter type-id='type-id-200' name='value'/>
            <return type-id='type-id-48'/>
          </function-decl>
        </member-function>
        <member-function access='public'>
          <function-decl name='Expected' mangled-name='_ZN2PJ8ExpectedINS_25DataSourceRuntimeHostViewENSt7__cxx1112basic_stringIcSt11char_traitsIcESaIcEEEEC2EONS_10UnexpectedIS7_EE' visibility='default' binding='global' size-in-bits='64' elf-symbol-id='_ZN2PJ8ExpectedINS_25DataSourceRuntimeHostViewENSt7__cxx1112basic_stringIcSt11char_traitsIcESaIcEEEEC2EONS_10UnexpectedIS7_EE'>
            <parameter type-id='type-id-206' name='this' is-artificial='yes'/>
            <parameter type-id='type-id-228' name='error'/>
            <return type-id='type-id-48'/>
          </function-decl>
        </member-function>
        <member-function access='public'>
          <function-decl name='operator*' mangled-name='_ZNR2PJ8ExpectedINS_25DataSourceRuntimeHostViewENSt7__cxx1112basic_stringIcSt11char_traitsIcESaIcEEEEdeEv' visibility='default' binding='global' size-in-bits='64' elf-symbol-id='_ZNR2PJ8ExpectedINS_25DataSourceRuntimeHostViewENSt7__cxx1112basic_stringIcSt11char_traitsIcESaIcEEEEdeEv'>
            <parameter type-id='type-id-206' name='this' is-artificial='yes'/>
            <return type-id='type-id-199'/>
          </function-decl>
        </member-function>
        <member-function access='public'>
          <function-decl name='error' mangled-name='_ZNO2PJ8ExpectedINS_25DataSourceRuntimeHostViewENSt7__cxx1112basic_stringIcSt11char_traitsIcESaIcEEEE5errorEv' visibility='default' binding='global' size-in-bits='64' elf-symbol-id='_ZNO2PJ8ExpectedINS_25DataSourceRuntimeHostViewENSt7__cxx1112basic_stringIcSt11char_traitsIcESaIcEEEE5errorEv'>
            <parameter type-id='type-id-206' name='this' is-artificial='yes'/>
            <return type-id='type-id-1018'/>
          </function-decl>
        </member-function>
        <member-function access='public' const='yes'>
          <function-decl name='has_value' mangled-name='_ZNK2PJ8ExpectedINS_25DataSourceRuntimeHostViewENSt7__cxx1112basic_stringIcSt11char_traitsIcESaIcEEEE9has_valueEv' visibility='default' binding='global' size-in-bits='64' elf-symbol-id='_ZNK2PJ8ExpectedINS_25DataSourceRuntimeHostViewENSt7__cxx1112basic_stringIcSt11char_traitsIcESaIcEEEE9has_valueEv'>
            <parameter type-id='type-id-329' name='this' is-artificial='yes'/>
            <return type-id='type-id-1'/>
          </function-decl>
        </member-function>
        <member-function access='public' const='yes'>
          <function-decl name='operator bool' mangled-name='_ZNK2PJ8ExpectedINS_25DataSourceRuntimeHostViewENSt7__cxx1112basic_stringIcSt11char_traitsIcESaIcEEEEcvbEv' visibility='default' binding='global' size-in-bits='64' elf-symbol-id='_ZNK2PJ8ExpectedINS_25DataSourceRuntimeHostViewENSt7__cxx1112basic_stringIcSt11char_traitsIcESaIcEEEEcvbEv'>
            <parameter type-id='type-id-329' name='this' is-artificial='yes'/>
            <return type-id='type-id-1'/>
          </function-decl>
        </member-function>
      </class-decl>
      <class-decl name='Expected&lt;PJ::sdk::SourceWriteHostView, std::__cxx11::basic_string&lt;char, std::char_traits&lt;char&gt;, std::allocator&lt;char&gt; &gt; &gt;' size-in-bits='320' visibility='default' id='type-id-207'>
        <data-member access='private' layout-offset-in-bits='0'>
          <var-decl name='storage_' type-id='type-id-902' visibility='default'/>
        </data-member>
        <member-function access='public'>
          <function-decl name='value' mangled-name='_ZNR2PJ8ExpectedINS_3sdk19SourceWriteHostViewENSt7__cxx1112basic_stringIcSt11char_traitsIcESaIcEEEE5valueEv' visibility='default' binding='global' size-in-bits='64' elf-symbol-id='_ZNR2PJ8ExpectedINS_3sdk19SourceWriteHostViewENSt7__cxx1112basic_stringIcSt11char_traitsIcESaIcEEEE5valueEv'>
            <parameter type-id='type-id-210' name='this' is-artificial='yes'/>
            <return type-id='type-id-235'/>
          </function-decl>
        </member-function>
        <member-function access='public'>
          <function-decl name='Expected' mangled-name='_ZN2PJ8ExpectedINS_3sdk19SourceWriteHostViewENSt7__cxx1112basic_stringIcSt11char_traitsIcESaIcEEEEC2EOS2_' visibility='default' binding='global' size-in-bits='64' elf-symbol-id='_ZN2PJ8ExpectedINS_3sdk19SourceWriteHostViewENSt7__cxx1112basic_stringIcSt11char_traitsIcESaIcEEEEC2EOS2_'>
            <parameter type-id='type-id-210' name='this' is-artificial='yes'/>
            <parameter type-id='type-id-236' name='value'/>
            <return type-id='type-id-48'/>
          </function-decl>
        </member-function>
        <member-function access='public'>
          <function-decl name='Expected' mangled-name='_ZN2PJ8ExpectedINS_3sdk19SourceWriteHostViewENSt7__cxx1112basic_stringIcSt11char_traitsIcESaIcEEEEC2EONS_10UnexpectedIS8_EE' visibility='default' binding='global' size-in-bits='64' elf-symbol-id='_ZN2PJ8ExpectedINS_3sdk19SourceWriteHostViewENSt7__cxx1112basic_stringIcSt11char_traitsIcESaIcEEEEC2EONS_10UnexpectedIS8_EE'>
            <parameter type-id='type-id-210' name='this' is-artificial='yes'/>
            <parameter type-id='type-id-228' name='error'/>
            <return type-id='type-id-48'/>
          </function-decl>
        </member-function>
        <member-function access='public'>
          <function-decl name='operator*' mangled-name='_ZNR2PJ8ExpectedINS_3sdk19SourceWriteHostViewENSt7__cxx1112basic_stringIcSt11char_traitsIcESaIcEEEEdeEv' visibility='default' binding='global' size-in-bits='64' elf-symbol-id='_ZNR2PJ8ExpectedINS_3sdk19SourceWriteHostViewENSt7__cxx1112basic_stringIcSt11char_traitsIcESaIcEEEEdeEv'>
            <parameter type-id='type-id-210' name='this' is-artificial='yes'/>
            <return type-id='type-id-235'/>
          </function-decl>
        </member-function>
        <member-function access='public'>
          <function-decl name='error' mangled-name='_ZNO2PJ8ExpectedINS_3sdk19SourceWriteHostViewENSt7__cxx1112basic_stringIcSt11char_traitsIcESaIcEEEE5errorEv' visibility='default' binding='global' size-in-bits='64' elf-symbol-id='_ZNO2PJ8ExpectedINS_3sdk19SourceWriteHostViewENSt7__cxx1112basic_stringIcSt11char_traitsIcESaIcEEEE5errorEv'>
            <parameter type-id='type-id-210' name='this' is-artificial='yes'/>
            <return type-id='type-id-1018'/>
          </function-decl>
        </member-function>
        <member-function access='public' const='yes'>
          <function-decl name='has_value' mangled-name='_ZNK2PJ8ExpectedINS_3sdk19SourceWriteHostViewENSt7__cxx1112basic_stringIcSt11char_traitsIcESaIcEEEE9has_valueEv' visibility='default' binding='global' size-in-bits='64' elf-symbol-id='_ZNK2PJ8ExpectedINS_3sdk19SourceWriteHostViewENSt7__cxx1112basic_stringIcSt11char_traitsIcESaIcEEEE9has_valueEv'>
            <parameter type-id='type-id-332' name='this' is-artificial='yes'/>
            <return type-id='type-id-1'/>
          </function-decl>
        </member-function>
        <member-function access='public' const='yes'>
          <function-decl name='operator bool' mangled-name='_ZNK2PJ8ExpectedINS_3sdk19SourceWriteHostViewENSt7__cxx1112basic_stringIcSt11char_traitsIcESaIcEEEEcvbEv' visibility='default' binding='global' size-in-bits='64' elf-symbol-id='_ZNK2PJ8ExpectedINS_3sdk19SourceWriteHostViewENSt7__cxx1112basic_stringIcSt11char_traitsIcESaIcEEEEcvbEv'>
            <parameter type-id='type-id-332' name='this' is-artificial='yes'/>
            <return type-id='type-id-1'/>
          </function-decl>
        </member-function>
      </class-decl>
      <class-decl name='Expected&lt;PJ_field_handle_t, std::__cxx11::basic_string&lt;char, std::char_traits&lt;char&gt;, std::allocator&lt;char&gt; &gt; &gt;' size-in-bits='320' visibility='default' id='type-id-211'>
        <data-member access='private' layout-offset-in-bits='0'>
          <var-decl name='storage_' type-id='type-id-907' visibility='default'/>
        </data-member>
      </class-decl>
      <class-decl name='Expected&lt;PJ_parser_binding_handle_t, std::__cxx11::basic_string&lt;char, std::char_traits&lt;char&gt;, std::allocator&lt;char&gt; &gt; &gt;' size-in-bits='320' visibility='default' id='type-id-213'>
        <data-member access='private' layout-offset-in-bits='0'>
          <var-decl name='storage_' type-id='type-id-911' visibility='default'/>
        </data-member>
        <member-function access='public'>
          <function-decl name='value' mangled-name='_ZNR2PJ8ExpectedI26PJ_parser_binding_handle_tNSt7__cxx1112basic_stringIcSt11char_traitsIcESaIcEEEE5valueEv' visibility='default' binding='global' size-in-bits='64' elf-symbol-id='_ZNR2PJ8ExpectedI26PJ_parser_binding_handle_tNSt7__cxx1112basic_stringIcSt11char_traitsIcESaIcEEEE5valueEv'>
            <parameter type-id='type-id-215' name='this' is-artificial='yes'/>
            <return type-id='type-id-253'/>
          </function-decl>
        </member-function>
        <member-function access='public'>
          <function-decl name='operator*' mangled-name='_ZNR2PJ8ExpectedI26PJ_parser_binding_handle_tNSt7__cxx1112basic_stringIcSt11char_traitsIcESaIcEEEEdeEv' visibility='default' binding='global' size-in-bits='64' elf-symbol-id='_ZNR2PJ8ExpectedI26PJ_parser_binding_handle_tNSt7__cxx1112basic_stringIcSt11char_traitsIcESaIcEEEEdeEv'>
            <parameter type-id='type-id-215' name='this' is-artificial='yes'/>
            <return type-id='type-id-253'/>
          </function-decl>
        </member-function>
        <member-function access='public'>
          <function-decl name='error' mangled-name='_ZNR2PJ8ExpectedI26PJ_parser_binding_handle_tNSt7__cxx1112basic_stringIcSt11char_traitsIcESaIcEEEE5errorEv' visibility='default' binding='global' size-in-bits='64' elf-symbol-id='_ZNR2PJ8ExpectedI26PJ_parser_binding_handle_tNSt7__cxx1112basic_stringIcSt11char_traitsIcESaIcEEEE5errorEv'>
            <parameter type-id='type-id-215' name='this' is-artificial='yes'/>
            <return type-id='type-id-1017'/>
          </function-decl>
        </member-function>
        <member-function access='public' const='yes'>
          <function-decl name='has_value' mangled-name='_ZNK2PJ8ExpectedI26PJ_parser_binding_handle_tNSt7__cxx1112basic_stringIcSt11char_traitsIcESaIcEEEE9has_valueEv' visibility='default' binding='global' size-in-bits='64' elf-symbol-id='_ZNK2PJ8ExpectedI26PJ_parser_binding_handle_tNSt7__cxx1112basic_stringIcSt11char_traitsIcESaIcEEEE9has_valueEv'>
            <parameter type-id='type-id-337' name='this' is-artificial='yes'/>
            <return type-id='type-id-1'/>
          </function-decl>
        </member-function>
        <member-function access='public' const='yes'>
          <function-decl name='operator bool' mangled-name='_ZNK2PJ8ExpectedI26PJ_parser_binding_handle_tNSt7__cxx1112basic_stringIcSt11char_traitsIcESaIcEEEEcvbEv' visibility='default' binding='global' size-in-bits='64' elf-symbol-id='_ZNK2PJ8ExpectedI26PJ_parser_binding_handle_tNSt7__cxx1112basic_stringIcSt11char_traitsIcESaIcEEEEcvbEv'>
            <parameter type-id='type-id-337' name='this' is-artificial='yes'/>
            <return type-id='type-id-1'/>
          </function-decl>
        </member-function>
        <member-function access='public'>
          <function-decl name='Expected' mangled-name='_ZN2PJ8ExpectedI26PJ_parser_binding_handle_tNSt7__cxx1112basic_stringIcSt11char_traitsIcESaIcEEEEC2EOS1_' visibility='default' binding='global' size-in-bits='64' elf-symbol-id='_ZN2PJ8ExpectedI26PJ_parser_binding_handle_tNSt7__cxx1112basic_stringIcSt11char_traitsIcESaIcEEEEC2EOS1_'>
            <parameter type-id='type-id-215' name='this' is-artificial='yes'/>
            <parameter type-id='type-id-254' name='value'/>
            <return type-id='type-id-48'/>
          </function-decl>
        </member-function>
        <member-function access='public'>
          <function-decl name='Expected' mangled-name='_ZN2PJ8ExpectedI26PJ_parser_binding_handle_tNSt7__cxx1112basic_stringIcSt11char_traitsIcESaIcEEEEC2EONS_10UnexpectedIS7_EE' visibility='default' binding='global' size-in-bits='64' elf-symbol-id='_ZN2PJ8ExpectedI26PJ_parser_binding_handle_tNSt7__cxx1112basic_stringIcSt11char_traitsIcESaIcEEEEC2EONS_10UnexpectedIS7_EE'>
            <parameter type-id='type-id-215' name='this' is-artificial='yes'/>
            <parameter type-id='type-id-228' name='error'/>
            <return type-id='type-id-48'/>
          </function-decl>
        </member-function>
      </class-decl>
      <class-decl name='Expected&lt;PJ_topic_handle_t, std::__cxx11::basic_string&lt;char, std::char_traits&lt;char&gt;, std::allocator&lt;char&gt; &gt; &gt;' size-in-bits='320' visibility='default' id='type-id-216'>
        <data-member access='private' layout-offset-in-bits='0'>
          <var-decl name='storage_' type-id='type-id-916' visibility='default'/>
        </data-member>
        <member-function access='public'>
          <function-decl name='value' mangled-name='_ZNR2PJ8ExpectedI17PJ_topic_handle_tNSt7__cxx1112basic_stringIcSt11char_traitsIcESaIcEEEE5valueEv' visibility='default' binding='global' size-in-bits='64' elf-symbol-id='_ZNR2PJ8ExpectedI17PJ_topic_handle_tNSt7__cxx1112basic_stringIcSt11char_traitsIcESaIcEEEE5valueEv'>
            <parameter type-id='type-id-218' name='this' is-artificial='yes'/>
            <return type-id='type-id-260'/>
          </function-decl>
        </member-function>
        <member-function access='public'>
          <function-decl name='operator*' mangled-name='_ZNR2PJ8ExpectedI17PJ_topic_handle_tNSt7__cxx1112basic_stringIcSt11char_traitsIcESaIcEEEEdeEv' visibility='default' binding='global' size-in-bits='64' elf-symbol-id='_ZNR2PJ8ExpectedI17PJ_topic_handle_tNSt7__cxx1112basic_stringIcSt11char_traitsIcESaIcEEEEdeEv'>
            <parameter type-id='type-id-218' name='this' is-artificial='yes'/>
            <return type-id='type-id-260'/>
          </function-decl>
        </member-function>
        <member-function access='public'>
          <function-decl name='error' mangled-name='_ZNR2PJ8ExpectedI17PJ_topic_handle_tNSt7__cxx1112basic_stringIcSt11char_traitsIcESaIcEEEE5errorEv' visibility='default' binding='global' size-in-bits='64' elf-symbol-id='_ZNR2PJ8ExpectedI17PJ_topic_handle_tNSt7__cxx1112basic_stringIcSt11char_traitsIcESaIcEEEE5errorEv'>
            <parameter type-id='type-id-218' name='this' is-artificial='yes'/>
            <return type-id='type-id-1017'/>
          </function-decl>
        </member-function>
        <member-function access='public' const='yes'>
          <function-decl name='has_value' mangled-name='_ZNK2PJ8ExpectedI17PJ_topic_handle_tNSt7__cxx1112basic_stringIcSt11char_traitsIcESaIcEEEE9has_valueEv' visibility='default' binding='global' size-in-bits='64' elf-symbol-id='_ZNK2PJ8ExpectedI17PJ_topic_handle_tNSt7__cxx1112basic_stringIcSt11char_traitsIcESaIcEEEE9has_valueEv'>
            <parameter type-id='type-id-340' name='this' is-artificial='yes'/>
            <return type-id='type-id-1'/>
          </function-decl>
        </member-function>
        <member-function access='public' const='yes'>
          <function-decl name='operator bool' mangled-name='_ZNK2PJ8ExpectedI17PJ_topic_handle_tNSt7__cxx1112basic_stringIcSt11char_traitsIcESaIcEEEEcvbEv' visibility='default' binding='global' size-in-bits='64' elf-symbol-id='_ZNK2PJ8ExpectedI17PJ_topic_handle_tNSt7__cxx1112basic_stringIcSt11char_traitsIcESaIcEEEEcvbEv'>
            <parameter type-id='type-id-340' name='this' is-artificial='yes'/>
            <return type-id='type-id-1'/>
          </function-decl>
        </member-function>
        <member-function access='public'>
          <function-decl name='Expected' mangled-name='_ZN2PJ8ExpectedI17PJ_topic_handle_tNSt7__cxx1112basic_stringIcSt11char_traitsIcESaIcEEEEC2EOS1_' visibility='default' binding='global' size-in-bits='64' elf-symbol-id='_ZN2PJ8ExpectedI17PJ_topic_handle_tNSt7__cxx1112basic_stringIcSt11char_traitsIcESaIcEEEEC2EOS1_'>
            <parameter type-id='type-id-218' name='this' is-artificial='yes'/>
            <parameter type-id='type-id-261' name='value'/>
            <return type-id='type-id-48'/>
          </function-decl>
        </member-function>
        <member-function access='public'>
          <function-decl name='Expected' mangled-name='_ZN2PJ8ExpectedI17PJ_topic_handle_tNSt7__cxx1112basic_stringIcSt11char_traitsIcESaIcEEEEC2EONS_10UnexpectedIS7_EE' visibility='default' binding='global' size-in-bits='64' elf-symbol-id='_ZN2PJ8ExpectedI17PJ_topic_handle_tNSt7__cxx1112basic_stringIcSt11char_traitsIcESaIcEEEEC2EONS_10UnexpectedIS7_EE'>
            <parameter type-id='type-id-218' name='this' is-artificial='yes'/>
            <parameter type-id='type-id-228' name='error'/>
            <return type-id='type-id-48'/>
          </function-decl>
        </member-function>
      </class-decl>
      <class-decl name='Expected&lt;void, std::__cxx11::basic_string&lt;char, std::char_traits&lt;char&gt;, std::allocator&lt;char&gt; &gt; &gt;' size-in-bits='320' visibility='default' id='type-id-219'>
        <data-member access='private' layout-offset-in-bits='0'>
          <var-decl name='error_' type-id='type-id-505' visibility='default'/>
        </data-member>
        <data-member access='private' layout-offset-in-bits='256'>
          <var-decl name='has_error_' type-id='type-id-1' visibility='default'/>
        </data-member>
        <member-function access='public' const='yes'>
          <function-decl name='has_value' mangled-name='_ZNK2PJ8ExpectedIvNSt7__cxx1112basic_stringIcSt11char_traitsIcESaIcEEEE9has_valueEv' visibility='default' binding='global' size-in-bits='64' elf-symbol-id='_ZNK2PJ8ExpectedIvNSt7__cxx1112basic_stringIcSt11char_traitsIcESaIcEEEE9has_valueEv'>
            <parameter type-id='type-id-343' name='this' is-artificial='yes'/>
            <return type-id='type-id-1'/>
          </function-decl>
        </member-function>
        <member-function access='public'>
          <function-decl name='error' mangled-name='_ZNR2PJ8ExpectedIvNSt7__cxx1112basic_stringIcSt11char_traitsIcESaIcEEEE5errorEv' visibility='default' binding='global' size-in-bits='64' elf-symbol-id='_ZNR2PJ8ExpectedIvNSt7__cxx1112basic_stringIcSt11char_traitsIcESaIcEEEE5errorEv'>
            <parameter type-id='type-id-222' name='this' is-artificial='yes'/>
            <return type-id='type-id-1017'/>
          </function-decl>
        </member-function>
        <member-function access='public'>
          <function-decl name='error' mangled-name='_ZNO2PJ8ExpectedIvNSt7__cxx1112basic_stringIcSt11char_traitsIcESaIcEEEE5errorEv' visibility='default' binding='global' size-in-bits='64' elf-symbol-id='_ZNO2PJ8ExpectedIvNSt7__cxx1112basic_stringIcSt11char_traitsIcESaIcEEEE5errorEv'>
            <parameter type-id='type-id-222' name='this' is-artificial='yes'/>
            <return type-id='type-id-1018'/>
          </function-decl>
        </member-function>
        <member-function access='public' const='yes'>
          <function-decl name='operator bool' mangled-name='_ZNK2PJ8ExpectedIvNSt7__cxx1112basic_stringIcSt11char_traitsIcESaIcEEEEcvbEv' visibility='default' binding='global' size-in-bits='64' elf-symbol-id='_ZNK2PJ8ExpectedIvNSt7__cxx1112basic_stringIcSt11char_traitsIcESaIcEEEEcvbEv'>
            <parameter type-id='type-id-343' name='this' is-artificial='yes'/>
            <return type-id='type-id-1'/>
          </function-decl>
        </member-function>
        <member-function access='public'>
          <function-decl name='Expected' mangled-name='_ZN2PJ8ExpectedIvNSt7__cxx1112basic_stringIcSt11char_traitsIcESaIcEEEEC2EONS_10UnexpectedIS6_EE' visibility='default' binding='global' size-in-bits='64' elf-symbol-id='_ZN2PJ8ExpectedIvNSt7__cxx1112basic_stringIcSt11char_traitsIcESaIcEEEEC2EONS_10UnexpectedIS6_EE'>
            <parameter type-id='type-id-222' name='this' is-artificial='yes'/>
            <parameter type-id='type-id-228' name='error'/>
            <return type-id='type-id-48'/>
          </function-decl>
        </member-function>
        <member-function access='public'>
          <function-decl name='Expected' mangled-name='_ZN2PJ8ExpectedIvNSt7__cxx1112basic_stringIcSt11char_traitsIcESaIcEEEEC2Ev' visibility='default' binding='global' size-in-bits='64' elf-symbol-id='_ZN2PJ8ExpectedIvNSt7__cxx1112basic_stringIcSt11char_traitsIcESaIcEEEEC2Ev'>
            <parameter type-id='type-id-222' name='this' is-artificial='yes'/>
            <return type-id='type-id-48'/>
          </function-decl>
        </member-function>
      </class-decl>
      <typedef-decl name='Status' type-id='type-id-219' id='type-id-1454'/>
      <enum-decl name='DataSourceState' id='type-id-1455'>
        <underlying-type type-id='type-id-42'/>
        <enumerator name='kIdle' value='0'/>
        <enumerator name='kConfiguring' value='1'/>
        <enumerator name='kStarting' value='2'/>
        <enumerator name='kRunning' value='3'/>
        <enumerator name='kPaused' value='4'/>
        <enumerator name='kStopping' value='5'/>
        <enumerator name='kStopped' value='6'/>
        <enumerator name='kFailed' value='7'/>
      </enum-decl>
      <enum-decl name='DataSourceMessageLevel' id='type-id-1456'>
        <underlying-type type-id='type-id-42'/>
        <enumerator name='kInfo' value='0'/>
        <enumerator name='kWarning' value='1'/>
        <enumerator name='kError' value='2'/>
      </enum-decl>
      <enum-decl name='MessageBoxType' id='type-id-1457'>
        <underlying-type type-id='type-id-42'/>
        <enumerator name='kInfo' value='0'/>
        <enumerator name='kWarning' value='1'/>
        <enumerator name='kError' value='2'/>
        <enumerator name='kQuestion' value='3'/>
      </enum-decl>
      <enum-decl name='MessageBoxButton' id='type-id-1458'>
        <underlying-type type-id='type-id-42'/>
        <enumerator name='kOk' value='1'/>
        <enumerator name='kCancel' value='2'/>
        <enumerator name='kYes' value='4'/>
        <enumerator name='kNo' value='8'/>
        <enumerator name='kContinue' value='16'/>
        <enumerator name='kAbort' value='32'/>
        <enumerator name='kRetry' value='64'/>
        <enumerator name='kIgnore' value='128'/>
      </enum-decl>
      <typedef-decl name='ParserBindingHandle' type-id='type-id-56' id='type-id-1459'/>
      <class-decl name='ParserBindingRequest' size-in-bits='640' is-struct='yes' visibility='default' id='type-id-347'>
        <data-member access='public' layout-offset-in-bits='0'>
          <var-decl name='topic_name' type-id='type-id-1460' visibility='default'/>
        </data-member>
        <data-member access='public' layout-offset-in-bits='128'>
          <var-decl name='parser_encoding' type-id='type-id-1460' visibility='default'/>
        </data-member>
        <data-member access='public' layout-offset-in-bits='256'>
          <var-decl name='type_name' type-id='type-id-1460' visibility='default'/>
        </data-member>
        <data-member access='public' layout-offset-in-bits='384'>
          <var-decl name='schema' type-id='type-id-1461' visibility='default'/>
        </data-member>
        <data-member access='public' layout-offset-in-bits='512'>
          <var-decl name='parser_config_json' type-id='type-id-1460' visibility='default'/>
        </data-member>
      </class-decl>
      <class-decl name='DataSourceRuntimeHostView' size-in-bits='128' visibility='default' id='type-id-198'>
        <data-member access='private' layout-offset-in-bits='0'>
          <var-decl name='host_' type-id='type-id-76' visibility='default'/>
        </data-member>
        <member-function access='public' constructor='yes'>
          <function-decl name='DataSourceRuntimeHostView' mangled-name='_ZN2PJ25DataSourceRuntimeHostViewC2Ev' visibility='default' binding='global' size-in-bits='64' elf-symbol-id='_ZN2PJ25DataSourceRuntimeHostViewC2Ev'>
            <parameter type-id='type-id-202' name='this' is-artificial='yes'/>
            <return type-id='type-id-48'/>
          </function-decl>
        </member-function>
        <member-function access='public' const='yes'>
          <function-decl name='pushRawMessage' mangled-name='_ZNK2PJ25DataSourceRuntimeHostView14pushRawMessageB5cxx11E26PJ_parser_binding_handle_tlSt4spanIKhLm18446744073709551615EE' visibility='default' binding='global' size-in-bits='64' elf-symbol-id='_ZNK2PJ25DataSourceRuntimeHostView14pushRawMessageB5cxx11E26PJ_parser_binding_handle_tlSt4spanIKhLm18446744073709551615EE'>
            <parameter type-id='type-id-326' name='this' is-artificial='yes'/>
            <parameter type-id='type-id-1459' name='handle'/>
            <parameter type-id='type-id-1462' name='host_timestamp_ns'/>
            <parameter type-id='type-id-1461' name='payload'/>
            <return type-id='type-id-1454'/>
          </function-decl>
        </member-function>
        <member-function access='public' const='yes'>
          <function-decl name='ensureParserBinding' mangled-name='_ZNK2PJ25DataSourceRuntimeHostView19ensureParserBindingB5cxx11ERKNS_20ParserBindingRequestE' visibility='default' binding='global' size-in-bits='64' elf-symbol-id='_ZNK2PJ25DataSourceRuntimeHostView19ensureParserBindingB5cxx11ERKNS_20ParserBindingRequestE'>
            <parameter type-id='type-id-326' name='this' is-artificial='yes'/>
            <parameter type-id='type-id-349' name='request'/>
            <return type-id='type-id-213'/>
          </function-decl>
        </member-function>
        <member-function access='public' const='yes'>
          <function-decl name='notifyState' mangled-name='_ZNK2PJ25DataSourceRuntimeHostView11notifyStateENS_15DataSourceStateE' visibility='default' binding='global' size-in-bits='64' elf-symbol-id='_ZNK2PJ25DataSourceRuntimeHostView11notifyStateENS_15DataSourceStateE'>
            <parameter type-id='type-id-326' name='this' is-artificial='yes'/>
            <parameter type-id='type-id-1455' name='state'/>
            <return type-id='type-id-48'/>
          </function-decl>
        </member-function>
        <member-function access='public' const='yes'>
          <function-decl name='progressFinish' mangled-name='_ZNK2PJ25DataSourceRuntimeHostView14progressFinishEv' visibility='default' binding='global' size-in-bits='64' elf-symbol-id='_ZNK2PJ25DataSourceRuntimeHostView14progressFinishEv'>
            <parameter type-id='type-id-326' name='this' is-artificial='yes'/>
            <return type-id='type-id-48'/>
          </function-decl>
        </member-function>
        <member-function access='public' const='yes'>
          <function-decl name='progressUpdate' mangled-name='_ZNK2PJ25DataSourceRuntimeHostView14progressUpdateEm' visibility='default' binding='global' size-in-bits='64' elf-symbol-id='_ZNK2PJ25DataSourceRuntimeHostView14progressUpdateEm'>
            <parameter type-id='type-id-326' name='this' is-artificial='yes'/>
            <parameter type-id='type-id-136' name='current_step'/>
            <return type-id='type-id-1'/>
          </function-decl>
        </member-function>
        <member-function access='public' const='yes'>
          <function-decl name='progressStart' mangled-name='_ZNK2PJ25DataSourceRuntimeHostView13progressStartB5cxx11ESt17basic_string_viewIcSt11char_traitsIcEEmb' visibility='default' binding='global' size-in-bits='64' elf-symbol-id='_ZNK2PJ25DataSourceRuntimeHostView13progressStartB5cxx11ESt17basic_string_viewIcSt11char_traitsIcEEmb'>
            <parameter type-id='type-id-326' name='this' is-artificial='yes'/>
            <parameter type-id='type-id-1460' name='label'/>
            <parameter type-id='type-id-136' name='total_steps'/>
            <parameter type-id='type-id-1' name='cancellable'/>
            <return type-id='type-id-1454'/>
          </function-decl>
        </member-function>
        <member-function access='public' const='yes'>
          <function-decl name='reportMessage' mangled-name='_ZNK2PJ25DataSourceRuntimeHostView13reportMessageENS_22DataSourceMessageLevelESt17basic_string_viewIcSt11char_traitsIcEE' visibility='default' binding='global' size-in-bits='64' elf-symbol-id='_ZNK2PJ25DataSourceRuntimeHostView13reportMessageENS_22DataSourceMessageLevelESt17basic_string_viewIcSt11char_traitsIcEE'>
            <parameter type-id='type-id-326' name='this' is-artificial='yes'/>
            <parameter type-id='type-id-1456' name='level'/>
            <parameter type-id='type-id-1460' name='message'/>
            <return type-id='type-id-48'/>
          </function-decl>
        </member-function>
        <member-function access='public' const='yes'>
          <function-decl name='valid' mangled-name='_ZNK2PJ25DataSourceRuntimeHostView5validEv' visibility='default' binding='global' size-in-bits='64' elf-symbol-id='_ZNK2PJ25DataSourceRuntimeHostView5validEv'>
            <parameter type-id='type-id-326' name='this' is-artificial='yes'/>
            <return type-id='type-id-1'/>
          </function-decl>
        </member-function>
        <member-function access='public' constructor='yes'>
          <function-decl name='DataSourceRuntimeHostView' mangled-name='_ZN2PJ25DataSourceRuntimeHostViewC2E29PJ_data_source_runtime_host_t' visibility='default' binding='global' size-in-bits='64' elf-symbol-id='_ZN2PJ25DataSourceRuntimeHostViewC2E29PJ_data_source_runtime_host_t'>
            <parameter type-id='type-id-202' name='this' is-artificial='yes'/>
            <parameter type-id='type-id-76' name='host'/>
            <return type-id='type-id-48'/>
          </function-decl>
        </member-function>
      </class-decl>
      <class-decl name='DataSourcePluginBase' size-in-bits='704' visibility='default' id='type-id-196'>
        <data-member access='private' layout-offset-in-bits='64'>
          <var-decl name='service_registry_' type-id='type-id-231' visibility='default'/>
        </data-member>
        <data-member access='private' layout-offset-in-bits='192'>
          <var-decl name='write_host_view_' type-id='type-id-234' visibility='default'/>
        </data-member>
        <data-member access='private' layout-offset-in-bits='320'>
          <var-decl name='runtime_host_view_' type-id='type-id-198' visibility='default'/>
        </data-member>
        <data-member access='private' layout-offset-in-bits='448'>
          <var-decl name='config_buf_' type-id='type-id-1463' visibility='default'/>
        </data-member>
        <member-function access='private' static='yes'>
          <function-decl name='trampoline_get_plugin_extension' mangled-name='_ZN2PJ20DataSourcePluginBase31trampoline_get_plugin_extensionEPv16PJ_string_view_t' visibility='default' binding='global' size-in-bits='64' elf-symbol-id='_ZN2PJ20DataSourcePluginBase31trampoline_get_plugin_extensionEPv16PJ_string_view_t'>
            <parameter type-id='type-id-18'/>
            <parameter type-id='type-id-61'/>
            <return type-id='type-id-18'/>
          </function-decl>
        </member-function>
        <member-function access='private' static='yes'>
          <function-decl name='trampoline_get_dialog' mangled-name='_ZN2PJ20DataSourcePluginBase21trampoline_get_dialogEPv' visibility='default' binding='global' size-in-bits='64' elf-symbol-id='_ZN2PJ20DataSourcePluginBase21trampoline_get_dialogEPv'>
            <parameter type-id='type-id-18'/>
            <return type-id='type-id-127'/>
          </function-decl>
        </member-function>
        <member-function access='private' static='yes'>
          <function-decl name='trampoline_current_state' mangled-name='_ZN2PJ20DataSourcePluginBase24trampoline_current_stateEPv' visibility='default' binding='global' size-in-bits='64' elf-symbol-id='_ZN2PJ20DataSourcePluginBase24trampoline_current_stateEPv'>
            <parameter type-id='type-id-18'/>
            <return type-id='type-id-50'/>
          </function-decl>
        </member-function>
        <member-function access='private' static='yes'>
          <function-decl name='trampoline_poll' mangled-name='_ZN2PJ20DataSourcePluginBase15trampoline_pollEPvP10PJ_error_t' visibility='default' binding='global' size-in-bits='64' elf-symbol-id='_ZN2PJ20DataSourcePluginBase15trampoline_pollEPvP10PJ_error_t'>
            <parameter type-id='type-id-18'/>
            <parameter type-id='type-id-244'/>
            <return type-id='type-id-1'/>
          </function-decl>
        </member-function>
        <member-function access='private' static='yes'>
          <function-decl name='trampoline_resume' mangled-name='_ZN2PJ20DataSourcePluginBase17trampoline_resumeEPvP10PJ_error_t' visibility='default' binding='global' size-in-bits='64' elf-symbol-id='_ZN2PJ20DataSourcePluginBase17trampoline_resumeEPvP10PJ_error_t'>
            <parameter type-id='type-id-18'/>
            <parameter type-id='type-id-244'/>
            <return type-id='type-id-1'/>
          </function-decl>
        </member-function>
        <member-function access='private' static='yes'>
          <function-decl name='trampoline_pause' mangled-name='_ZN2PJ20DataSourcePluginBase16trampoline_pauseEPvP10PJ_error_t' visibility='default' binding='global' size-in-bits='64' elf-symbol-id='_ZN2PJ20DataSourcePluginBase16trampoline_pauseEPvP10PJ_error_t'>
            <parameter type-id='type-id-18'/>
            <parameter type-id='type-id-244'/>
            <return type-id='type-id-1'/>
          </function-decl>
        </member-function>
        <member-function access='private' static='yes'>
          <function-decl name='trampoline_stop' mangled-name='_ZN2PJ20DataSourcePluginBase15trampoline_stopEPv' visibility='default' binding='global' size-in-bits='64' elf-symbol-id='_ZN2PJ20DataSourcePluginBase15trampoline_stopEPv'>
            <parameter type-id='type-id-18'/>
            <return type-id='type-id-48'/>
          </function-decl>
        </member-function>
        <member-function access='private' static='yes'>
          <function-decl name='trampoline_start' mangled-name='_ZN2PJ20DataSourcePluginBase16trampoline_startEPvP10PJ_error_t' visibility='default' binding='global' size-in-bits='64' elf-symbol-id='_ZN2PJ20DataSourcePluginBase16trampoline_startEPvP10PJ_error_t'>
            <parameter type-id='type-id-18'/>
            <parameter type-id='type-id-244'/>
            <return type-id='type-id-1'/>
          </function-decl>
        </member-function>
        <member-function access='private' static='yes'>
          <function-decl name='trampoline_load_config' mangled-name='_ZN2PJ20DataSourcePluginBase22trampoline_load_configEPv16PJ_string_view_tP10PJ_error_t' visibility='default' binding='global' size-in-bits='64' elf-symbol-id='_ZN2PJ20DataSourcePluginBase22trampoline_load_configEPv16PJ_string_view_tP10PJ_error_t'>
            <parameter type-id='type-id-18'/>
            <parameter type-id='type-id-61'/>
            <parameter type-id='type-id-244'/>
            <return type-id='type-id-1'/>
          </function-decl>
        </member-function>
        <member-function access='private' static='yes'>
          <function-decl name='trampoline_save_config' mangled-name='_ZN2PJ20DataSourcePluginBase22trampoline_save_configEPvP16PJ_string_view_tP10PJ_error_t' visibility='default' binding='global' size-in-bits='64' elf-symbol-id='_ZN2PJ20DataSourcePluginBase22trampoline_save_configEPvP16PJ_string_view_tP10PJ_error_t'>
            <parameter type-id='type-id-18'/>
            <parameter type-id='type-id-259'/>
            <parameter type-id='type-id-244'/>
            <return type-id='type-id-1'/>
          </function-decl>
        </member-function>
        <member-function access='private' static='yes'>
          <function-decl name='trampoline_bind' mangled-name='_ZN2PJ20DataSourcePluginBase15trampoline_bindEPv21PJ_service_registry_tP10PJ_error_t' visibility='default' binding='global' size-in-bits='64' elf-symbol-id='_ZN2PJ20DataSourcePluginBase15trampoline_bindEPv21PJ_service_registry_tP10PJ_error_t'>
            <parameter type-id='type-id-18'/>
            <parameter type-id='type-id-124'/>
            <parameter type-id='type-id-244'/>
            <return type-id='type-id-1'/>
          </function-decl>
        </member-function>
        <member-function access='private' static='yes'>
          <function-decl name='trampoline_capabilities' mangled-name='_ZN2PJ20DataSourcePluginBase23trampoline_capabilitiesEPv' visibility='default' binding='global' size-in-bits='64' elf-symbol-id='_ZN2PJ20DataSourcePluginBase23trampoline_capabilitiesEPv'>
            <parameter type-id='type-id-18'/>
            <return type-id='type-id-136'/>
          </function-decl>
        </member-function>
        <member-function access='private' static='yes'>
          <function-decl name='trampoline_destroy' mangled-name='_ZN2PJ20DataSourcePluginBase18trampoline_destroyEPv' visibility='default' binding='global' size-in-bits='64' elf-symbol-id='_ZN2PJ20DataSourcePluginBase18trampoline_destroyEPv'>
            <parameter type-id='type-id-18'/>
            <return type-id='type-id-48'/>
          </function-decl>
        </member-function>
        <member-function access='private' static='yes'>
          <function-decl name='storeError' mangled-name='_ZN2PJ20DataSourcePluginBase10storeErrorEP10PJ_error_tiSt17basic_string_viewIcSt11char_traitsIcEES6_' visibility='default' binding='global' size-in-bits='64' elf-symbol-id='_ZN2PJ20DataSourcePluginBase10storeErrorEP10PJ_error_tiSt17basic_string_viewIcSt11char_traitsIcEES6_'>
            <parameter type-id='type-id-244'/>
            <parameter type-id='type-id-118'/>
            <parameter type-id='type-id-1460'/>
            <parameter type-id='type-id-1460'/>
            <return type-id='type-id-48'/>
          </function-decl>
        </member-function>
        <member-function access='protected' const='yes'>
          <function-decl name='runtimeHostBound' mangled-name='_ZNK2PJ20DataSourcePluginBase16runtimeHostBoundEv' visibility='default' binding='global' size-in-bits='64' elf-symbol-id='_ZNK2PJ20DataSourcePluginBase16runtimeHostBoundEv'>
            <parameter type-id='type-id-321' name='this' is-artificial='yes'/>
            <return type-id='type-id-1'/>
          </function-decl>
        </member-function>
        <member-function access='protected' const='yes'>
          <function-decl name='writeHostBound' mangled-name='_ZNK2PJ20DataSourcePluginBase14writeHostBoundEv' visibility='default' binding='global' size-in-bits='64' elf-symbol-id='_ZNK2PJ20DataSourcePluginBase14writeHostBoundEv'>
            <parameter type-id='type-id-321' name='this' is-artificial='yes'/>
            <return type-id='type-id-1'/>
          </function-decl>
        </member-function>
        <member-function access='protected' const='yes'>
          <function-decl name='runtimeHost' mangled-name='_ZNK2PJ20DataSourcePluginBase11runtimeHostEv' visibility='default' binding='global' size-in-bits='64' elf-symbol-id='_ZNK2PJ20DataSourcePluginBase11runtimeHostEv'>
            <parameter type-id='type-id-321' name='this' is-artificial='yes'/>
            <return type-id='type-id-323'/>
          </function-decl>
        </member-function>
        <member-function access='protected' const='yes'>
          <function-decl name='writeHost' mangled-name='_ZNK2PJ20DataSourcePluginBase9writeHostEv' visibility='default' binding='global' size-in-bits='64' elf-symbol-id='_ZNK2PJ20DataSourcePluginBase9writeHostEv'>
            <parameter type-id='type-id-321' name='this' is-artificial='yes'/>
            <return type-id='type-id-366'/>
          </function-decl>
        </member-function>
        <member-function access='public' destructor='yes' vtable-offset='-1'>
          <function-decl name='~DataSourcePluginBase' mangled-name='_ZN2PJ20DataSourcePluginBaseD4Ev' visibility='default' binding='global' size-in-bits='64'>
            <parameter type-id='type-id-197' is-artificial='yes'/>
            <parameter type-id='type-id-21' is-artificial='yes'/>
            <return type-id='type-id-48'/>
          </function-decl>
        </member-function>
        <member-function access='public' destructor='yes' vtable-offset='-1'>
          <function-decl name='~DataSourcePluginBase' mangled-name='_ZN2PJ20DataSourcePluginBaseD0Ev' visibility='default' binding='global' size-in-bits='64' elf-symbol-id='_ZN2PJ20DataSourcePluginBaseD0Ev'>
            <parameter type-id='type-id-197' is-artificial='yes'/>
            <parameter type-id='type-id-21' is-artificial='yes'/>
            <return type-id='type-id-48'/>
          </function-decl>
        </member-function>
        <member-function access='public' destructor='yes' vtable-offset='-1'>
          <function-decl name='~DataSourcePluginBase' mangled-name='_ZN2PJ20DataSourcePluginBaseD2Ev' visibility='default' binding='global' size-in-bits='64' elf-symbol-id='_ZN2PJ20DataSourcePluginBaseD2Ev'>
            <parameter type-id='type-id-197' is-artificial='yes'/>
            <parameter type-id='type-id-21' is-artificial='yes'/>
            <return type-id='type-id-48'/>
          </function-decl>
        </member-function>
        <member-function access='public' const='yes' vtable-offset='2'>
          <function-decl name='capabilities' mangled-name='_ZNK2PJ20DataSourcePluginBase12capabilitiesEv' visibility='default' binding='global' size-in-bits='64'>
            <parameter type-id='type-id-320' is-artificial='yes'/>
            <return type-id='type-id-136'/>
          </function-decl>
        </member-function>
        <member-function access='public' vtable-offset='3'>
          <function-decl name='bind' mangled-name='_ZN2PJ20DataSourcePluginBase4bindB5cxx11ENS_3sdk15ServiceRegistryE' visibility='default' binding='global' size-in-bits='64' elf-symbol-id='_ZN2PJ20DataSourcePluginBase4bindB5cxx11ENS_3sdk15ServiceRegistryE'>
            <parameter type-id='type-id-197' is-artificial='yes'/>
            <parameter type-id='type-id-231'/>
            <return type-id='type-id-1454'/>
          </function-decl>
        </member-function>
        <member-function access='public' const='yes' vtable-offset='4'>
          <function-decl name='saveConfig' mangled-name='_ZNK2PJ20DataSourcePluginBase10saveConfigB5cxx11Ev' visibility='default' binding='global' size-in-bits='64' elf-symbol-id='_ZNK2PJ20DataSourcePluginBase10saveConfigB5cxx11Ev'>
            <parameter type-id='type-id-320' is-artificial='yes'/>
            <return type-id='type-id-1463'/>
          </function-decl>
        </member-function>
        <member-function access='public' vtable-offset='5'>
          <function-decl name='loadConfig' mangled-name='_ZN2PJ20DataSourcePluginBase10loadConfigB5cxx11ESt17basic_string_viewIcSt11char_traitsIcEE' visibility='default' binding='global' size-in-bits='64' elf-symbol-id='_ZN2PJ20DataSourcePluginBase10loadConfigB5cxx11ESt17basic_string_viewIcSt11char_traitsIcEE'>
            <parameter type-id='type-id-197' is-artificial='yes'/>
            <parameter type-id='type-id-1460'/>
            <return type-id='type-id-1454'/>
          </function-decl>
        </member-function>
        <member-function access='public' vtable-offset='6'>
          <function-decl name='start' mangled-name='_ZN2PJ20DataSourcePluginBase5startB5cxx11Ev' visibility='default' binding='global' size-in-bits='64'>
            <parameter type-id='type-id-197' is-artificial='yes'/>
            <return type-id='type-id-1454'/>
          </function-decl>
        </member-function>
        <member-function access='public' vtable-offset='7'>
          <function-decl name='stop' mangled-name='_ZN2PJ20DataSourcePluginBase4stopEv' visibility='default' binding='global' size-in-bits='64'>
            <parameter type-id='type-id-197' is-artificial='yes'/>
            <return type-id='type-id-48'/>
          </function-decl>
        </member-function>
        <member-function access='public' vtable-offset='8'>
          <function-decl name='pause' mangled-name='_ZN2PJ20DataSourcePluginBase5pauseB5cxx11Ev' visibility='default' binding='global' size-in-bits='64' elf-symbol-id='_ZN2PJ20DataSourcePluginBase5pauseB5cxx11Ev'>
            <parameter type-id='type-id-197' is-artificial='yes'/>
            <return type-id='type-id-1454'/>
          </function-decl>
        </member-function>
        <member-function access='public' vtable-offset='9'>
          <function-decl name='resume' mangled-name='_ZN2PJ20DataSourcePluginBase6resumeB5cxx11Ev' visibility='default' binding='global' size-in-bits='64' elf-symbol-id='_ZN2PJ20DataSourcePluginBase6resumeB5cxx11Ev'>
            <parameter type-id='type-id-197' is-artificial='yes'/>
            <return type-id='type-id-1454'/>
          </function-decl>
        </member-function>
        <member-function access='public' vtable-offset='10'>
          <function-decl name='poll' mangled-name='_ZN2PJ20DataSourcePluginBase4pollB5cxx11Ev' visibility='default' binding='global' size-in-bits='64' elf-symbol-id='_ZN2PJ20DataSourcePluginBase4pollB5cxx11Ev'>
            <parameter type-id='type-id-197' is-artificial='yes'/>
            <return type-id='type-id-1454'/>
          </function-decl>
        </member-function>
        <member-function access='public' const='yes' vtable-offset='11'>
          <function-decl name='currentState' mangled-name='_ZNK2PJ20DataSourcePluginBase12currentStateEv' visibility='default' binding='global' size-in-bits='64'>
            <parameter type-id='type-id-320' is-artificial='yes'/>
            <return type-id='type-id-1455'/>
          </function-decl>
        </member-function>
        <member-function access='public' vtable-offset='12'>
          <function-decl name='getDialog' mangled-name='_ZN2PJ20DataSourcePluginBase9getDialogEv' visibility='default' binding='global' size-in-bits='64' elf-symbol-id='_ZN2PJ20DataSourcePluginBase9getDialogEv'>
            <parameter type-id='type-id-197' is-artificial='yes'/>
            <return type-id='type-id-127'/>
          </function-decl>
        </member-function>
        <member-function access='public' vtable-offset='13'>
          <function-decl name='pluginExtension' mangled-name='_ZN2PJ20DataSourcePluginBase15pluginExtensionESt17basic_string_viewIcSt11char_traitsIcEE' visibility='default' binding='global' size-in-bits='64' elf-symbol-id='_ZN2PJ20DataSourcePluginBase15pluginExtensionESt17basic_string_viewIcSt11char_traitsIcEE'>
            <parameter type-id='type-id-197' is-artificial='yes'/>
            <parameter type-id='type-id-1460'/>
            <return type-id='type-id-18'/>
          </function-decl>
        </member-function>
      </class-decl>
      <typedef-decl name='Span' type-id='type-id-879' id='type-id-1461'/>
      <enum-decl name='PrimitiveType' id='type-id-1464'>
        <underlying-type type-id='type-id-43'/>
        <enumerator name='kFloat32' value='0'/>
        <enumerator name='kFloat64' value='1'/>
        <enumerator name='kInt8' value='2'/>
        <enumerator name='kInt16' value='3'/>
        <enumerator name='kInt32' value='4'/>
        <enumerator name='kInt64' value='5'/>
        <enumerator name='kUint8' value='6'/>
        <enumerator name='kUint16' value='7'/>
        <enumerator name='kUint32' value='8'/>
        <enumerator name='kUint64' value='9'/>
        <enumerator name='kBool' value='10'/>
        <enumerator name='kString' value='11'/>
        <enumerator name='kUnspecified' value='255'/>
      </enum-decl>
      <typedef-decl name='Timestamp' type-id='type-id-98' id='type-id-1462'/>
      <class-decl name='NullValue' size-in-bits='8' is-struct='yes' visibility='default' id='type-id-223'/>
      <function-decl name='unexpected&lt;std::__cxx11::basic_string&lt;char&gt; &gt;' mangled-name='_ZN2PJ10unexpectedINSt7__cxx1112basic_stringIcSt11char_traitsIcESaIcEEEEENS_10UnexpectedINSt5decayIT_E4typeEEEOS9_' visibility='default' binding='global' size-in-bits='64' elf-symbol-id='_ZN2PJ10unexpectedINSt7__cxx1112basic_stringIcSt11char_traitsIcESaIcEEEEENS_10UnexpectedINSt5decayIT_E4typeEEEOS9_'>
        <parameter type-id='type-id-1018'/>
        <return type-id='type-id-226'/>
      </function-decl>
      <function-decl name='unexpected&lt;std::__cxx11::basic_string&lt;char&gt;&amp;&gt;' mangled-name='_ZN2PJ10unexpectedIRNSt7__cxx1112basic_stringIcSt11char_traitsIcESaIcEEEEENS_10UnexpectedINSt5decayIT_E4typeEEEOSA_' visibility='default' binding='global' size-in-bits='64' elf-symbol-id='_ZN2PJ10unexpectedIRNSt7__cxx1112basic_stringIcSt11char_traitsIcESaIcEEEEENS_10UnexpectedINSt5decayIT_E4typeEEEOSA_'>
        <parameter type-id='type-id-1017'/>
        <return type-id='type-id-226'/>
      </function-decl>
      <function-decl name='unexpected' mangled-name='_ZN2PJ10unexpectedB5cxx11EPKc' visibility='default' binding='global' size-in-bits='64' elf-symbol-id='_ZN2PJ10unexpectedB5cxx11EPKc'>
        <parameter type-id='type-id-81'/>
        <return type-id='type-id-226'/>
      </function-decl>
      <function-decl name='okStatus' mangled-name='_ZN2PJ8okStatusB5cxx11Ev' visibility='default' binding='global' size-in-bits='64' elf-symbol-id='_ZN2PJ8okStatusB5cxx11Ev'>
        <return type-id='type-id-1454'/>
      </function-decl>
      <function-decl name='errorToString' mangled-name='_ZN2PJ13errorToStringB5cxx11ERK10PJ_error_t' visibility='default' binding='global' size-in-bits='64' elf-symbol-id='_ZN2PJ13errorToStringB5cxx11ERK10PJ_error_t'>
        <parameter type-id='type-id-386'/>
        <return type-id='type-id-1463'/>
      </function-decl>
      <namespace-decl name='sdk'>
        <typedef-decl name='TopicHandle' type-id='type-id-112' id='type-id-1465'/>
        <typedef-decl name='FieldHandle' type-id='type-id-114' id='type-id-1466'/>
        <class-decl name='TypedNull' size-in-bits='8' is-struct='yes' visibility='default' id='type-id-239'>
          <data-member access='public' layout-offset-in-bits='0'>
            <var-decl name='type' type-id='type-id-1464' visibility='default'/>
          </data-member>
        </class-decl>
        <typedef-decl name='ValueRef' type-id='type-id-897' id='type-id-373'/>
        <class-decl name='NamedFieldValue' size-in-bits='448' is-struct='yes' visibility='default' id='type-id-356'>
          <data-member access='public' layout-offset-in-bits='0'>
            <var-decl name='name' type-id='type-id-1463' visibility='default'/>
          </data-member>
          <data-member access='public' layout-offset-in-bits='256'>
            <var-decl name='value' type-id='type-id-373' visibility='default'/>
          </data-member>
        </class-decl>
        <class-decl name='BoundFieldValue' size-in-bits='256' is-struct='yes' visibility='default' id='type-id-353'>
          <data-member access='public' layout-offset-in-bits='0'>
            <var-decl name='field' type-id='type-id-1466' visibility='default'/>
          </data-member>
          <data-member access='public' layout-offset-in-bits='64'>
            <var-decl name='value' type-id='type-id-373' visibility='default'/>
          </data-member>
        </class-decl>
        <class-decl name='type' size-in-bits='8' is-struct='yes' naming-typedef-id='type-id-1267' visibility='default' id='type-id-1467'/>
        <class-decl name='type' size-in-bits='64' is-struct='yes' naming-typedef-id='type-id-1263' visibility='default' id='type-id-242'>
          <data-member access='public' layout-offset-in-bits='0'>
            <var-decl name='__out' type-id='type-id-256' visibility='default'/>
          </data-member>
        </class-decl>
        <class-decl name='SourceWriteHostView' size-in-bits='128' visibility='default' id='type-id-234'>
          <data-member access='private' layout-offset-in-bits='0'>
            <var-decl name='host_' type-id='type-id-150' visibility='default'/>
          </data-member>
          <member-function access='public' const='yes'>
            <function-decl name='appendRecord' mangled-name='_ZNK2PJ3sdk19SourceWriteHostView12appendRecordB5cxx11E17PJ_topic_handle_tlSt16initializer_listINS0_15NamedFieldValueEE' visibility='default' binding='global' size-in-bits='64' elf-symbol-id='_ZNK2PJ3sdk19SourceWriteHostView12appendRecordB5cxx11E17PJ_topic_handle_tlSt16initializer_listINS0_15NamedFieldValueEE'>
              <parameter type-id='type-id-369' name='this' is-artificial='yes'/>
              <parameter type-id='type-id-1465' name='topic'/>
              <parameter type-id='type-id-1462' name='timestamp'/>
              <parameter type-id='type-id-851' name='fields'/>
              <return type-id='type-id-1454'/>
            </function-decl>
          </member-function>
          <member-function access='public' const='yes'>
            <function-decl name='appendRecord' mangled-name='_ZNK2PJ3sdk19SourceWriteHostView12appendRecordB5cxx11E17PJ_topic_handle_tlSt4spanIKNS0_15NamedFieldValueELm18446744073709551615EE' visibility='default' binding='global' size-in-bits='64' elf-symbol-id='_ZNK2PJ3sdk19SourceWriteHostView12appendRecordB5cxx11E17PJ_topic_handle_tlSt4spanIKNS0_15NamedFieldValueELm18446744073709551615EE'>
              <parameter type-id='type-id-369' name='this' is-artificial='yes'/>
              <parameter type-id='type-id-1465' name='topic'/>
              <parameter type-id='type-id-1462' name='timestamp'/>
              <parameter type-id='type-id-1461' name='fields'/>
              <return type-id='type-id-1454'/>
            </function-decl>
          </member-function>
          <member-function access='public' const='yes'>
            <function-decl name='ensureTopic' mangled-name='_ZNK2PJ3sdk19SourceWriteHostView11ensureTopicB5cxx11ESt17basic_string_viewIcSt11char_traitsIcEE' visibility='default' binding='global' size-in-bits='64' elf-symbol-id='_ZNK2PJ3sdk19SourceWriteHostView11ensureTopicB5cxx11ESt17basic_string_viewIcSt11char_traitsIcEE'>
              <parameter type-id='type-id-369' name='this' is-artificial='yes'/>
              <parameter type-id='type-id-1460' name='topic_name'/>
              <return type-id='type-id-216'/>
            </function-decl>
          </member-function>
          <member-function access='public' const='yes'>
            <function-decl name='valid' mangled-name='_ZNK2PJ3sdk19SourceWriteHostView5validEv' visibility='default' binding='global' size-in-bits='64' elf-symbol-id='_ZNK2PJ3sdk19SourceWriteHostView5validEv'>
              <parameter type-id='type-id-369' name='this' is-artificial='yes'/>
              <return type-id='type-id-1'/>
            </function-decl>
          </member-function>
          <member-function access='public' constructor='yes'>
            <function-decl name='SourceWriteHostView' mangled-name='_ZN2PJ3sdk19SourceWriteHostViewC2E22PJ_source_write_host_t' visibility='default' binding='global' size-in-bits='64' elf-symbol-id='_ZN2PJ3sdk19SourceWriteHostViewC2E22PJ_source_write_host_t'>
              <parameter type-id='type-id-238' name='this' is-artificial='yes'/>
              <parameter type-id='type-id-150' name='host'/>
              <return type-id='type-id-48'/>
            </function-decl>
          </member-function>
        </class-decl>
        <class-decl name='ServiceRegistry' size-in-bits='128' visibility='default' id='type-id-231'>
          <data-member access='private' layout-offset-in-bits='0'>
            <var-decl name='raw_' type-id='type-id-124' visibility='default'/>
          </data-member>
          <member-function access='private' static='yes'>
            <function-decl name='makeView&lt;PJ::sdk::DataSourceRuntimeHostService&gt;' mangled-name='_ZN2PJ3sdk15ServiceRegistry8makeViewINS0_28DataSourceRuntimeHostServiceEEENT_4ViewE12PJ_service_t' visibility='default' binding='global' size-in-bits='64' elf-symbol-id='_ZN2PJ3sdk15ServiceRegistry8makeViewINS0_28DataSourceRuntimeHostServiceEEENT_4ViewE12PJ_service_t'>
              <parameter type-id='type-id-119'/>
              <return type-id='type-id-1468'/>
            </function-decl>
          </member-function>
          <member-function access='private' static='yes'>
            <function-decl name='makeView&lt;PJ::sdk::SourceWriteHostService&gt;' mangled-name='_ZN2PJ3sdk15ServiceRegistry8makeViewINS0_22SourceWriteHostServiceEEENT_4ViewE12PJ_service_t' visibility='default' binding='global' size-in-bits='64' elf-symbol-id='_ZN2PJ3sdk15ServiceRegistry8makeViewINS0_22SourceWriteHostServiceEEENT_4ViewE12PJ_service_t'>
              <parameter type-id='type-id-119'/>
              <return type-id='type-id-1469'/>
            </function-decl>
          </member-function>
          <member-function access='public' const='yes'>
            <function-decl name='require&lt;PJ::sdk::DataSourceRuntimeHostService&gt;' mangled-name='_ZNK2PJ3sdk15ServiceRegistry7requireINS0_28DataSourceRuntimeHostServiceEEENS_8ExpectedINT_4ViewENSt7__cxx1112basic_stringIcSt11char_traitsIcESaIcEEEEEv' visibility='default' binding='global' size-in-bits='64' elf-symbol-id='_ZNK2PJ3sdk15ServiceRegistry7requireINS0_28DataSourceRuntimeHostServiceEEENS_8ExpectedINT_4ViewENSt7__cxx1112basic_stringIcSt11char_traitsIcESaIcEEEEEv'>
              <parameter type-id='type-id-364' name='this' is-artificial='yes'/>
              <return type-id='type-id-203'/>
            </function-decl>
          </member-function>
          <member-function access='public' const='yes'>
            <function-decl name='require&lt;PJ::sdk::SourceWriteHostService&gt;' mangled-name='_ZNK2PJ3sdk15ServiceRegistry7requireINS0_22SourceWriteHostServiceEEENS_8ExpectedINT_4ViewENSt7__cxx1112basic_stringIcSt11char_traitsIcESaIcEEEEEv' visibility='default' binding='global' size-in-bits='64' elf-symbol-id='_ZNK2PJ3sdk15ServiceRegistry7requireINS0_22SourceWriteHostServiceEEENS_8ExpectedINT_4ViewENSt7__cxx1112basic_stringIcSt11char_traitsIcESaIcEEEEEv'>
              <parameter type-id='type-id-364' name='this' is-artificial='yes'/>
              <return type-id='type-id-207'/>
            </function-decl>
          </member-function>
          <member-function access='public' constructor='yes'>
            <function-decl name='ServiceRegistry' mangled-name='_ZN2PJ3sdk15ServiceRegistryC2Ev' visibility='default' binding='global' size-in-bits='64' elf-symbol-id='_ZN2PJ3sdk15ServiceRegistryC2Ev'>
              <parameter type-id='type-id-233' name='this' is-artificial='yes'/>
              <return type-id='type-id-48'/>
            </function-decl>
          </member-function>
          <member-function access='private' static='yes'>
            <function-decl name='validateService' mangled-name='_ZN2PJ3sdk15ServiceRegistry15validateServiceERK12PJ_service_t' visibility='default' binding='global' size-in-bits='64' elf-symbol-id='_ZN2PJ3sdk15ServiceRegistry15validateServiceERK12PJ_service_t'>
              <parameter type-id='type-id-401'/>
              <return type-id='type-id-1'/>
            </function-decl>
          </member-function>
          <member-function access='private' const='yes'>
            <function-decl name='lookup' mangled-name='_ZNK2PJ3sdk15ServiceRegistry6lookupEPKcjR12PJ_service_tP10PJ_error_t' visibility='default' binding='global' size-in-bits='64' elf-symbol-id='_ZNK2PJ3sdk15ServiceRegistry6lookupEPKcjR12PJ_service_tP10PJ_error_t'>
              <parameter type-id='type-id-364' name='this' is-artificial='yes'/>
              <parameter type-id='type-id-81' name='name'/>
              <parameter type-id='type-id-58' name='min_version'/>
              <parameter type-id='type-id-257' name='out_service'/>
              <parameter type-id='type-id-244' name='out_error'/>
              <return type-id='type-id-1'/>
            </function-decl>
          </member-function>
          <member-function access='private' static='yes'>
            <function-decl name='writeField' mangled-name='_ZN2PJ3sdk15ServiceRegistry10writeFieldEPcmPKc' visibility='default' binding='global' size-in-bits='64' elf-symbol-id='_ZN2PJ3sdk15ServiceRegistry10writeFieldEPcmPKc'>
              <parameter type-id='type-id-154'/>
              <parameter type-id='type-id-877'/>
              <parameter type-id='type-id-81'/>
              <return type-id='type-id-48'/>
            </function-decl>
          </member-function>
          <member-function access='public' const='yes'>
            <function-decl name='valid' mangled-name='_ZNK2PJ3sdk15ServiceRegistry5validEv' visibility='default' binding='global' size-in-bits='64' elf-symbol-id='_ZNK2PJ3sdk15ServiceRegistry5validEv'>
              <parameter type-id='type-id-364' name='this' is-artificial='yes'/>
              <return type-id='type-id-1'/>
            </function-decl>
          </member-function>
          <member-function access='public' constructor='yes'>
            <function-decl name='ServiceRegistry' mangled-name='_ZN2PJ3sdk15ServiceRegistryC2E21PJ_service_registry_t' visibility='default' binding='global' size-in-bits='64' elf-symbol-id='_ZN2PJ3sdk15ServiceRegistryC2E21PJ_service_registry_t'>
              <parameter type-id='type-id-233' name='this' is-artificial='yes'/>
              <parameter type-id='type-id-124' name='raw'/>
              <return type-id='type-id-48'/>
            </function-decl>
          </member-function>
        </class-decl>
        <class-decl name='SourceWriteHostService' size-in-bits='8' is-struct='yes' visibility='default' id='type-id-1470'>
          <member-type access='public'>
            <typedef-decl name='Raw' type-id='type-id-150' id='type-id-1471'/>
          </member-type>
          <member-type access='public'>
            <typedef-decl name='View' type-id='type-id-234' id='type-id-1469'/>
          </member-type>
          <data-member access='public' static='yes'>
            <var-decl name='kMinVersion' type-id='type-id-939' mangled-name='_ZN2PJ3sdk22SourceWriteHostService11kMinVersionE' visibility='default'/>
          </data-member>
        </class-decl>
        <class-decl name='DataSourceRuntimeHostService' size-in-bits='8' is-struct='yes' visibility='default' id='type-id-1472'>
          <member-type access='public'>
            <typedef-decl name='Raw' type-id='type-id-76' id='type-id-1473'/>
          </member-type>
          <member-type access='public'>
            <typedef-decl name='View' type-id='type-id-198' id='type-id-1468'/>
          </member-type>
          <data-member access='public' static='yes'>
            <var-decl name='kMinVersion' type-id='type-id-939' mangled-name='_ZN2PJ3sdk28DataSourceRuntimeHostService11kMinVersionE' visibility='default'/>
          </data-member>
        </class-decl>
        <function-decl name='toAbiType' mangled-name='_ZN2PJ3sdk9toAbiTypeENS_13PrimitiveTypeE' visibility='default' binding='global' size-in-bits='64' elf-symbol-id='_ZN2PJ3sdk9toAbiTypeENS_13PrimitiveTypeE'>
          <parameter type-id='type-id-1464'/>
          <return type-id='type-id-91'/>
        </function-decl>
        <function-decl name='isNull' mangled-name='_ZN2PJ3sdk6isNullERKSt7variantIJNS_9NullValueENS0_9TypedNullEfdasilhtjmbSt17basic_string_viewIcSt11char_traitsIcEEEE' visibility='default' binding='global' size-in-bits='64' elf-symbol-id='_ZN2PJ3sdk6isNullERKSt7variantIJNS_9NullValueENS0_9TypedNullEfdasilhtjmbSt17basic_string_viewIcSt11char_traitsIcEEEE'>
          <parameter type-id='type-id-375'/>
          <return type-id='type-id-1'/>
        </function-decl>
        <function-decl name='toAbiString' mangled-name='_ZN2PJ3sdk11toAbiStringESt17basic_string_viewIcSt11char_traitsIcEE' visibility='default' binding='global' size-in-bits='64' elf-symbol-id='_ZN2PJ3sdk11toAbiStringESt17basic_string_viewIcSt11char_traitsIcEE'>
          <parameter type-id='type-id-1460'/>
          <return type-id='type-id-61'/>
        </function-decl>
        <function-decl name='toAbiBytes' mangled-name='_ZN2PJ3sdk10toAbiBytesESt4spanIKhLm18446744073709551615EE' visibility='default' binding='global' size-in-bits='64' elf-symbol-id='_ZN2PJ3sdk10toAbiBytesESt4spanIKhLm18446744073709551615EE'>
          <parameter type-id='type-id-1461'/>
          <return type-id='type-id-62'/>
        </function-decl>
        <function-decl name='typeOf' mangled-name='_ZN2PJ3sdk6typeOfERKSt7variantIJNS_9NullValueENS0_9TypedNullEfdasilhtjmbSt17basic_string_viewIcSt11char_traitsIcEEEE' visibility='default' binding='global' size-in-bits='64' elf-symbol-id='_ZN2PJ3sdk6typeOfERKSt7variantIJNS_9NullValueENS0_9TypedNullEfdasilhtjmbSt17basic_string_viewIcSt11char_traitsIcEEEE'>
          <parameter type-id='type-id-375'/>
          <return type-id='type-id-1464'/>
        </function-decl>
        <function-decl name='toAbiScalar' mangled-name='_ZN2PJ3sdk11toAbiScalarERKSt7variantIJNS_9NullValueENS0_9TypedNullEfdasilhtjmbSt17basic_string_viewIcSt11char_traitsIcEEEE' visibility='default' binding='global' size-in-bits='64' elf-symbol-id='_ZN2PJ3sdk11toAbiScalarERKSt7variantIJNS_9NullValueENS0_9TypedNullEfdasilhtjmbSt17basic_string_viewIcSt11char_traitsIcEEEE'>
          <parameter type-id='type-id-375'/>
          <return type-id='type-id-137'/>
        </function-decl>
        <function-decl name='setErrorField' mangled-name='_ZN2PJ3sdk13setErrorFieldEPcmSt17basic_string_viewIcSt11char_traitsIcEE' visibility='default' binding='global' size-in-bits='64' elf-symbol-id='_ZN2PJ3sdk13setErrorFieldEPcmSt17basic_string_viewIcSt11char_traitsIcEE'>
          <parameter type-id='type-id-154'/>
          <parameter type-id='type-id-877'/>
          <parameter type-id='type-id-1460'/>
          <return type-id='type-id-48'/>
        </function-decl>
        <function-decl name='fillError' mangled-name='_ZN2PJ3sdk9fillErrorEP10PJ_error_tiSt17basic_string_viewIcSt11char_traitsIcEES6_' visibility='default' binding='global' size-in-bits='64' elf-symbol-id='_ZN2PJ3sdk9fillErrorEP10PJ_error_tiSt17basic_string_viewIcSt11char_traitsIcEES6_'>
          <parameter type-id='type-id-244'/>
          <parameter type-id='type-id-118'/>
          <parameter type-id='type-id-1460'/>
          <parameter type-id='type-id-1460'/>
          <return type-id='type-id-48'/>
        </function-decl>
        <function-decl name='errorToString' mangled-name='_ZN2PJ3sdk13errorToStringB5cxx11ERK10PJ_error_t' visibility='default' binding='global' size-in-bits='64' elf-symbol-id='_ZN2PJ3sdk13errorToStringB5cxx11ERK10PJ_error_t'>
          <parameter type-id='type-id-386'/>
          <return type-id='type-id-1463'/>
        </function-decl>
        <function-decl name='toAbiNamed' mangled-name='_ZN2PJ3sdk10toAbiNamedESt4spanIKNS0_15NamedFieldValueELm18446744073709551615EE' visibility='default' binding='global' size-in-bits='64' elf-symbol-id='_ZN2PJ3sdk10toAbiNamedESt4spanIKNS0_15NamedFieldValueELm18446744073709551615EE'>
          <parameter type-id='type-id-1461'/>
          <return type-id='type-id-921'/>
        </function-decl>
      </namespace-decl>
    </namespace-decl>
    <var-decl name='pj_plugin_abi_version' type-id='type-id-939' mangled-name='pj_plugin_abi_version' visibility='default' elf-symbol-id='pj_plugin_abi_version'/>
    <function-decl name='PJ_get_data_source_vtable' mangled-name='PJ_get_data_source_vtable' visibility='default' binding='global' size-in-bits='64' elf-symbol-id='PJ_get_data_source_vtable'>
      <return type-id='type-id-382'/>
    </function-decl>
    <function-decl name='operator new' mangled-name='_ZnwmPv' visibility='default' binding='global' size-in-bits='64' elf-symbol-id='_ZnwmPv'>
      <parameter type-id='type-id-877'/>
      <parameter type-id='type-id-18' name='__p'/>
      <return type-id='type-id-18'/>
    </function-decl>
    <function-decl name='setlocale' visibility='default' binding='global' size-in-bits='64'>
      <parameter type-id='type-id-21'/>
      <parameter type-id='type-id-81'/>
      <return type-id='type-id-154'/>
    </function-decl>
    <function-decl name='localeconv' visibility='default' binding='global' size-in-bits='64'>
